
C_eng_job4.elf:     file format elf32-littlenios2
C_eng_job4.elf
architecture: nios2:r1, flags 0x00000112:
EXEC_P, HAS_SYMS, D_PAGED
start address 0x00800180

Program Header:
    LOAD off    0x00001000 vaddr 0x00800000 paddr 0x00800000 align 2**12
         filesz 0x00000020 memsz 0x00000020 flags r-x
    LOAD off    0x00001020 vaddr 0x00800020 paddr 0x00800020 align 2**12
         filesz 0x000038a0 memsz 0x000038a0 flags r-x
    LOAD off    0x000048c0 vaddr 0x008038c0 paddr 0x00803bdc align 2**12
         filesz 0x0000031c memsz 0x0000031c flags rw-
    LOAD off    0x00004ef8 vaddr 0x00803ef8 paddr 0x00803ef8 align 2**12
         filesz 0x00000000 memsz 0x000003a4 flags rw-

Sections:
Idx Name          Size      VMA       LMA       File off  Algn
  0 .entry        00000020  00800000  00800000  00001000  2**5
                  CONTENTS, ALLOC, LOAD, READONLY, CODE
  1 .exceptions   00000160  00800020  00800020  00001020  2**2
                  CONTENTS, ALLOC, LOAD, READONLY, CODE
  2 .text         0000328c  00800180  00800180  00001180  2**2
                  CONTENTS, ALLOC, LOAD, READONLY, CODE
  3 .rodata       000004b4  0080340c  0080340c  0000440c  2**2
                  CONTENTS, ALLOC, LOAD, READONLY, DATA
  4 .rwdata       0000031c  008038c0  00803bdc  000048c0  2**2
                  CONTENTS, ALLOC, LOAD, DATA, SMALL_DATA
  5 .bss          000003a4  00803ef8  00803ef8  00004ef8  2**2
                  ALLOC, SMALL_DATA
  6 .SDRAM_Controller 00000000  0080429c  0080429c  00004bdc  2**0
                  CONTENTS
  7 .comment      00000023  00000000  00000000  00004bdc  2**0
                  CONTENTS, READONLY
  8 .debug_aranges 00000240  00000000  00000000  00004c00  2**3
                  CONTENTS, READONLY, DEBUGGING
  9 .debug_info   00002834  00000000  00000000  00004e40  2**0
                  CONTENTS, READONLY, DEBUGGING
 10 .debug_abbrev 00000d51  00000000  00000000  00007674  2**0
                  CONTENTS, READONLY, DEBUGGING
 11 .debug_line   000013a7  00000000  00000000  000083c5  2**0
                  CONTENTS, READONLY, DEBUGGING
 12 .debug_frame  00000694  00000000  00000000  0000976c  2**2
                  CONTENTS, READONLY, DEBUGGING
 13 .debug_str    00000ef9  00000000  00000000  00009e00  2**0
                  CONTENTS, READONLY, DEBUGGING
 14 .debug_loc    00000a05  00000000  00000000  0000acf9  2**0
                  CONTENTS, READONLY, DEBUGGING
 15 .debug_alt_sim_info 00000010  00000000  00000000  0000b700  2**2
                  CONTENTS, READONLY, DEBUGGING
 16 .debug_ranges 00000180  00000000  00000000  0000b710  2**3
                  CONTENTS, READONLY, DEBUGGING
 17 .thread_model 00000003  00000000  00000000  0000d65d  2**0
                  CONTENTS, READONLY
 18 .cpu          00000009  00000000  00000000  0000d660  2**0
                  CONTENTS, READONLY
 19 .qsys         00000001  00000000  00000000  0000d669  2**0
                  CONTENTS, READONLY
 20 .simulation_enabled 00000001  00000000  00000000  0000d66a  2**0
                  CONTENTS, READONLY
 21 .stderr_dev   0000000b  00000000  00000000  0000d66b  2**0
                  CONTENTS, READONLY
 22 .stdin_dev    0000000b  00000000  00000000  0000d676  2**0
                  CONTENTS, READONLY
 23 .stdout_dev   0000000b  00000000  00000000  0000d681  2**0
                  CONTENTS, READONLY
 24 .sopc_system_name 00000017  00000000  00000000  0000d68c  2**0
                  CONTENTS, READONLY
 25 .quartus_project_dir 00000040  00000000  00000000  0000d6a3  2**0
                  CONTENTS, READONLY
 26 .sopcinfo     0007c6c2  00000000  00000000  0000d6e3  2**0
                  CONTENTS, READONLY
SYMBOL TABLE:
00800000 l    d  .entry	00000000 .entry
00800020 l    d  .exceptions	00000000 .exceptions
00800180 l    d  .text	00000000 .text
0080340c l    d  .rodata	00000000 .rodata
008038c0 l    d  .rwdata	00000000 .rwdata
00803ef8 l    d  .bss	00000000 .bss
0080429c l    d  .SDRAM_Controller	00000000 .SDRAM_Controller
00000000 l    d  .comment	00000000 .comment
00000000 l    d  .debug_aranges	00000000 .debug_aranges
00000000 l    d  .debug_info	00000000 .debug_info
00000000 l    d  .debug_abbrev	00000000 .debug_abbrev
00000000 l    d  .debug_line	00000000 .debug_line
00000000 l    d  .debug_frame	00000000 .debug_frame
00000000 l    d  .debug_str	00000000 .debug_str
00000000 l    d  .debug_loc	00000000 .debug_loc
00000000 l    d  .debug_alt_sim_info	00000000 .debug_alt_sim_info
00000000 l    d  .debug_ranges	00000000 .debug_ranges
00000000 l    df *ABS*	00000000 ../C_eng_job4_bsp//obj/HAL/src/crt0.o
008001b8 l       .text	00000000 alt_after_alt_main
00000000 l    df *ABS*	00000000 alt_irq_handler.c
00000000 l    df *ABS*	00000000 alt_instruction_exception_entry.c
00000000 l    df *ABS*	00000000 main.c
00803f20 l     O .bss	000000d4 q1.3788
00803ff4 l     O .bss	000000d4 q4.3789
008040c8 l     O .bss	000000d4 q5.3790
00000000 l    df *ABS*	00000000 sensor.c
00000000 l    df *ABS*	00000000 vga_util.c
00803ef8 l     O .bss	00000004 seconds.2779
00803efc l     O .bss	00000004 minutes.2778
00803f00 l     O .bss	00000004 hours.2777
00803f04 l     O .bss	00000004 sub_seconds.2802
00000000 l    df *ABS*	00000000 lib2-divmod.c
00000000 l    df *ABS*	00000000 lib2-mul.c
00000000 l    df *ABS*	00000000 fixsfsi.c
00000000 l    df *ABS*	00000000 memcpy.c
00000000 l    df *ABS*	00000000 memset.c
00000000 l    df *ABS*	00000000 strlen.c
00000000 l    df *ABS*	00000000 alt_load.c
00000000 l    df *ABS*	00000000 alt_main.c
00000000 l    df *ABS*	00000000 alt_sys_init.c
008038fc l     O .rwdata	0000002c jtag_uart_0
008038c0 l     O .rwdata	0000003c modular_adc_0
00000000 l    df *ABS*	00000000 altera_avalon_jtag_uart_fd.c
00000000 l    df *ABS*	00000000 altera_avalon_jtag_uart_read.c
00000000 l    df *ABS*	00000000 altera_avalon_jtag_uart_write.c
00000000 l    df *ABS*	00000000 altera_avalon_spi.c
00000000 l    df *ABS*	00000000 altera_modular_adc.c
008029bc l     F .text	00000058 alt_adc_irq
00000000 l    df *ABS*	00000000 alt_close.c
00000000 l    df *ABS*	00000000 alt_dcache_flush_all.c
00000000 l    df *ABS*	00000000 alt_dev.c
00802b58 l     F .text	00000008 alt_dev_null_write
00000000 l    df *ABS*	00000000 alt_dev_llist_insert.c
00000000 l    df *ABS*	00000000 alt_errno.c
00000000 l    df *ABS*	00000000 alt_find_dev.c
00000000 l    df *ABS*	00000000 alt_icache_flush_all.c
00000000 l    df *ABS*	00000000 alt_iic.c
00000000 l    df *ABS*	00000000 alt_iic_isr_register.c
00000000 l    df *ABS*	00000000 alt_io_redirect.c
00802d54 l     F .text	00000088 alt_open_fd.constprop.0
00000000 l    df *ABS*	00000000 alt_irq_vars.c
00000000 l    df *ABS*	00000000 alt_open.c
00000000 l    df *ABS*	00000000 alt_release_fd.c
00000000 l    df *ABS*	00000000 altera_nios2_gen2_irq.c
00000000 l    df *ABS*	00000000 alt_find_file.c
00000000 l    df *ABS*	00000000 alt_get_fd.c
00000000 l    df *ABS*	00000000 exit.c
00000000 l    df *ABS*	00000000 int_errno.c
00000000 l    df *ABS*	00000000 memcmp.c
00000000 l    df *ABS*	00000000 __call_atexit.c
00000000 l    df *ABS*	00000000 impure.c
00803ad0 l     O .rwdata	000000e0 impure_data
00000000 l    df *ABS*	00000000 alt_exit.c
00803f18 g     O .bss	00000004 alt_instruction_exception_handler
008028cc g     F .text	00000020 adc_stop
008025e8 g     F .text	00000050 alt_main
0080419c g     O .bss	00000100 alt_irq
00803bdc g       *ABS*	00000000 __flash_rwdata_start
008012f4 g     F .text	0000009c i2bcd
00801bd0 g     F .text	00000130 print_char
00802434 g     F .text	00000070 .hidden __fixsfsi
008021b0 g     F .text	000000a8 print_welcome_screen
00803064 g     F .text	00000008 altera_nios2_gen2_irq_init
00800000 g     F .entry	0000000c __reset
00802990 g     F .text	00000018 adc_interrupt_disable
00800020 g       *ABS*	00000000 __flash_exceptions_start
00803f1c g     O .bss	00000004 errno
008011c0 g     F .text	00000114 read_accelerometerX
00802860 g     F .text	00000064 altera_modular_adc_init
00803f0c g     O .bss	00000004 alt_argv
0080bbb0 g       *ABS*	00000000 _gp
00801390 g     F .text	00000268 update_time
00800e84 g     F .text	00000080 read_temp
00803928 g     O .rwdata	00000180 alt_fd_list
00802bd8 g     F .text	00000074 alt_find_dev
008024a4 g     F .text	00000028 memcpy
00801d00 g     F .text	000000a8 print_str
00802914 g     F .text	00000014 adc_set_mode_run_continuously
00802ddc g     F .text	00000074 alt_io_redirect
008031a4 g     F .text	00000074 alt_exception_cause_generated_bad_addr
00801790 g     F .text	000000ec high_lite_5Hz_sampling_on_screen
008026b0 g     F .text	0000005c altera_avalon_jtag_uart_read
00802350 g     F .text	00000064 .hidden __udivsi3
00801a30 g     F .text	000000d0 print_hline
00800f84 g     F .text	00000034 config_time_base
00803bb0 g     O .rwdata	00000008 altera_modular_adc_list
00803bb8 g     O .rwdata	00000004 alt_max_fd
00803bd4 g     O .rwdata	00000004 _global_impure_ptr
0080429c g       *ABS*	00000000 __bss_end
00802cec g     F .text	00000068 alt_iic_isr_register
00801004 g     F .text	00000114 draw_graph
00802a78 g     F .text	00000014 adc_wait_for_interrupt
00801984 g     F .text	000000ac print_pix
00802cd4 g     F .text	00000018 alt_ic_irq_enabled
00803f14 g     O .bss	00000004 alt_irq_active
008000fc g     F .exceptions	00000060 alt_irq_handler
00803aa8 g     O .rwdata	00000028 alt_dev_null
008028fc g     F .text	00000018 adc_set_mode_run_once
00802b54 g     F .text	00000004 alt_dcache_flush_all
00803bdc g       *ABS*	00000000 __ram_rwdata_end
00803bbc g     O .rwdata	00000008 alt_dev_list
00801b00 g     F .text	000000d0 print_vline
008038c0 g       *ABS*	00000000 __ram_rodata_end
008028ec g     F .text	00000010 adc_start
008023b4 g     F .text	00000058 .hidden __umodsi3
0080429c g       *ABS*	00000000 end
0080015c g     F .exceptions	00000024 alt_instruction_exception_entry
01000000 g       *ABS*	00000000 __alt_stack_pointer
0080270c g     F .text	00000034 altera_avalon_jtag_uart_write
00800fb8 g     F .text	0000004c init_measurement
00803268 g     F .text	00000190 __call_exitprocs
00800180 g     F .text	0000003c _start
00801118 g     F .text	000000a8 update_graph
00802740 g     F .text	000000e8 alt_avalon_spi_command
00802658 g     F .text	00000038 alt_sys_init
0080240c g     F .text	00000028 .hidden __mulsi3
008038c0 g       *ABS*	00000000 __ram_rwdata_start
0080340c g       *ABS*	00000000 __ram_rodata_start
00802690 g     F .text	00000010 altera_avalon_jtag_uart_read_fd
00803118 g     F .text	0000008c alt_get_fd
00803238 g     F .text	00000030 memcmp
0080429c g       *ABS*	00000000 __alt_stack_base
00800a54 g     F .text	00000068 queue_dequeue
0080297c g     F .text	00000014 adc_interrupt_enable
0080306c g     F .text	000000ac alt_find_file
00802b60 g     F .text	00000078 alt_dev_llist_insert
00803ef8 g       *ABS*	00000000 __bss_start
008024cc g     F .text	00000020 memset
008001bc g     F .text	00000680 main
00803f08 g     O .bss	00000004 alt_envp
008026a0 g     F .text	00000010 altera_avalon_jtag_uart_write_fd
00802828 g     F .text	00000038 alt_adc_word_read
00803bcc g     O .rwdata	00000004 alt_errno
00802258 g     F .text	00000084 .hidden __divsi3
0080340c g       *ABS*	00000000 __flash_rodata_start
0080214c g     F .text	00000064 read_pixel_ram_int
00802638 g     F .text	00000020 alt_irq_init
00803008 g     F .text	0000005c alt_release_fd
008015f8 g     F .text	000000d4 high_lite_dot2Hz_sampling_on_screen
00803bd8 g     O .rwdata	00000004 _impure_ptr
00803f10 g     O .bss	00000004 alt_argc
008016cc g     F .text	000000c4 high_lite_1Hz_sampling_on_screen
00800000 g       *ABS*	00000000 __alt_mem_SDRAM_Controller
00800020 g       .exceptions	00000000 alt_irq_entry
00803bc4 g     O .rwdata	00000008 alt_fs_list
00800020 g       *ABS*	00000000 __ram_exceptions_start
00802c50 g     F .text	00000004 alt_ic_isr_register
00803bdc g       *ABS*	00000000 _edata
0080429c g       *ABS*	00000000 _end
00800f04 g     F .text	00000080 read_light
00802a68 g     F .text	00000010 adc_interrupt_asserted
00801da8 g     F .text	00000158 print_symmetry_dots_circle
00800180 g       *ABS*	00000000 __ram_exceptions_end
00802c94 g     F .text	00000040 alt_ic_irq_disable
008029a8 g     F .text	00000014 adc_clear_interrupt_status
00803218 g     F .text	00000020 exit
008022dc g     F .text	00000074 .hidden __modsi3
01000000 g       *ABS*	00000000 __alt_data_end
00800020 g     F .exceptions	00000000 alt_exception
008028c4 g     F .text	00000008 altera_modular_adc_open
008033f8 g     F .text	00000014 _exit
00800b0c g     F .text	00000378 queue_print_screen
008024ec g     F .text	0000001c strlen
00802e50 g     F .text	000001b8 open
00802928 g     F .text	00000054 adc_recalibrate
00802c4c g     F .text	00000004 alt_icache_flush_all
008012d4 g     F .text	00000020 do_nothing
00803bd0 g     O .rwdata	00000004 alt_priority_mask
00802c54 g     F .text	00000040 alt_ic_irq_enable
00801f00 g     F .text	00000154 print_empty_circle
008020c8 g     F .text	00000084 clear_screen
00800abc g     F .text	00000050 queue_print
0080187c g     F .text	00000108 draw_sampling_frequecy_sub_screen
00802a8c g     F .text	000000c8 close
0080083c g     F .text	0000008c queue_init
008008c8 g     F .text	0000018c queue_enqueue
00802054 g     F .text	00000074 print_circle
00802508 g     F .text	000000e0 alt_load
00802a14 g     F .text	00000054 alt_adc_register_callback



Disassembly of section .entry:

00800000 <__reset>:
 * Jump to the _start entry point in the .text section if reset code
 * is allowed or if optimizing for RTL simulation.
 */
#if defined(ALT_ALLOW_CODE_AT_RESET) || defined(ALT_SIM_OPTIMIZE)
    /* Jump to the _start entry point in the .text section. */
    movhi r1, %hi(_start)
  800000:	00402034 	movhi	at,128
    ori r1, r1, %lo(_start)
  800004:	08406014 	ori	at,at,384
    jmp r1
  800008:	0800683a 	jmp	at
	...

Disassembly of section .exceptions:

00800020 <alt_exception>:

#else /* ALT_EXCEPTION_STACK disabled */
        /* 
         * Reserve space on normal stack for registers about to be pushed.
         */
        addi  sp, sp, -76
  800020:	deffed04 	addi	sp,sp,-76
         * documentation for details).
         *
         * Leave a gap in the stack frame at 4(sp) for the muldiv handler to
         * store zero into.
         */
        stw   ra,  0(sp)
  800024:	dfc00015 	stw	ra,0(sp)
        stw   r1,   8(sp)
  800028:	d8400215 	stw	at,8(sp)
        stw   r2,  12(sp)
  80002c:	d8800315 	stw	r2,12(sp)
        stw   r3,  16(sp)
  800030:	d8c00415 	stw	r3,16(sp)
        stw   r4,  20(sp)
  800034:	d9000515 	stw	r4,20(sp)
        stw   r5,  24(sp)
  800038:	d9400615 	stw	r5,24(sp)
        stw   r6,  28(sp)
  80003c:	d9800715 	stw	r6,28(sp)
        stw   r7,  32(sp)
  800040:	d9c00815 	stw	r7,32(sp)
        rdctl r5, estatus   /* Read early to avoid usage stall */
  800044:	000b307a 	rdctl	r5,estatus
        stw   r8,  36(sp)
  800048:	da000915 	stw	r8,36(sp)
        stw   r9,  40(sp)
  80004c:	da400a15 	stw	r9,40(sp)
        stw   r10, 44(sp)
  800050:	da800b15 	stw	r10,44(sp)
        stw   r11, 48(sp)
  800054:	dac00c15 	stw	r11,48(sp)
        stw   r12, 52(sp)
  800058:	db000d15 	stw	r12,52(sp)
        stw   r13, 56(sp)
  80005c:	db400e15 	stw	r13,56(sp)
        stw   r14, 60(sp)
  800060:	db800f15 	stw	r14,60(sp)
        stw   r15, 64(sp)
  800064:	dbc01015 	stw	r15,64(sp)
        /*
         * ea-4 contains the address of the instruction being executed
         * when the exception occured. For interrupt exceptions, we will
         * will be re-issue the isntruction. Store it in 72(sp)
         */
        stw   r5,  68(sp)  /* estatus */
  800068:	d9401115 	stw	r5,68(sp)
        addi  r15, ea, -4  /* instruction that caused exception */
  80006c:	ebffff04 	addi	r15,ea,-4
        stw   r15,  72(sp)
  800070:	dbc01215 	stw	r15,72(sp)
#else
        /*
         * Test to see if the exception was a software exception or caused 
         * by an external interrupt, and vector accordingly.
         */
        rdctl r4, ipending
  800074:	0009313a 	rdctl	r4,ipending
        andi  r2, r5, 1
  800078:	2880004c 	andi	r2,r5,1
        beq   r2, zero, .Lnot_irq
  80007c:	10000326 	beq	r2,zero,80008c <alt_exception+0x6c>
        beq   r4, zero, .Lnot_irq
  800080:	20000226 	beq	r4,zero,80008c <alt_exception+0x6c>
        /*
         * Now that all necessary registers have been preserved, call 
         * alt_irq_handler() to process the interrupts.
         */

        call alt_irq_handler
  800084:	08000fc0 	call	8000fc <alt_irq_handler>

        .section .exceptions.irqreturn, "xa"

        br    .Lexception_exit
  800088:	00000706 	br	8000a8 <alt_exception+0x88>
         * upon completion, so we write ea (address of instruction *after*
         * the one where the exception occured) into 72(sp). The actual
         * instruction that caused the exception is written in r2, which these
         * handlers will utilize.
         */
        stw ea, 72(sp) /* EA is PC+4 so will skip over instruction causing exception */
  80008c:	df401215 	stw	ea,72(sp)
.Lunknown_16bit:
        addi.n r4, r4, 2 /* Need PC+2 to skip over instruction causing exception */
        stw r4, 72(sp)

#else /* CDX is not Enabled and all instructions are 32bits */
        ldw r2, -4(ea) /* Instruction value that caused exception */
  800090:	e8bfff17 	ldw	r2,-4(ea)
         * debugger is present) or go into an infinite loop since the
         * handling behavior is undefined; in that case we will not return here.
         */

        /* Load exception-causing address as first argument (r4) */
        addi   r4, ea, -4
  800094:	e93fff04 	addi	r4,ea,-4

        /* Call the instruction-exception entry */
        call   alt_instruction_exception_entry
  800098:	080015c0 	call	80015c <alt_instruction_exception_entry>
         * instruction
         *
         * Return code was 0: Skip. The instruction after the exception is
         * already stored in 72(sp).
         */
        bne   r2, r0, .Lexception_exit
  80009c:	1000021e 	bne	r2,zero,8000a8 <alt_exception+0x88>

        /*
         * Otherwise, modify 72(sp) to re-issue the instruction that caused the
         * exception.
         */
        addi  r15, ea, -4  /* instruction that caused exception */
  8000a0:	ebffff04 	addi	r15,ea,-4
        stw   r15,  72(sp)
  8000a4:	dbc01215 	stw	r15,72(sp)
        /* 
         * Restore the saved registers, so that all general purpose registers 
         * have been restored to their state at the time the interrupt occured.
         */

        ldw   r5,  68(sp)
  8000a8:	d9401117 	ldw	r5,68(sp)
        ldw   ea,  72(sp)  /* This becomes the PC once eret is executed */
  8000ac:	df401217 	ldw	ea,72(sp)
        ldw   ra,   0(sp)
  8000b0:	dfc00017 	ldw	ra,0(sp)

        wrctl estatus, r5
  8000b4:	2801707a 	wrctl	estatus,r5

        ldw   r1,   8(sp)
  8000b8:	d8400217 	ldw	at,8(sp)
        ldw   r2,  12(sp)
  8000bc:	d8800317 	ldw	r2,12(sp)
        ldw   r3,  16(sp)
  8000c0:	d8c00417 	ldw	r3,16(sp)
        ldw   r4,  20(sp)
  8000c4:	d9000517 	ldw	r4,20(sp)
        ldw   r5,  24(sp)
  8000c8:	d9400617 	ldw	r5,24(sp)
        ldw   r6,  28(sp)
  8000cc:	d9800717 	ldw	r6,28(sp)
        ldw   r7,  32(sp)
  8000d0:	d9c00817 	ldw	r7,32(sp)

#if defined(ALT_EXCEPTION_STACK) && defined(ALT_STACK_CHECK)
        ldw   et, %gprel(alt_exception_old_stack_limit)(gp)
#endif

        ldw   r8,  36(sp)
  8000d4:	da000917 	ldw	r8,36(sp)
        ldw   r9,  40(sp)
  8000d8:	da400a17 	ldw	r9,40(sp)
        ldw   r10, 44(sp)
  8000dc:	da800b17 	ldw	r10,44(sp)
        ldw   r11, 48(sp)
  8000e0:	dac00c17 	ldw	r11,48(sp)
        ldw   r12, 52(sp)
  8000e4:	db000d17 	ldw	r12,52(sp)
        ldw   r13, 56(sp)
  8000e8:	db400e17 	ldw	r13,56(sp)
        ldw   r14, 60(sp)
  8000ec:	db800f17 	ldw	r14,60(sp)
        ldw   r15, 64(sp)
  8000f0:	dbc01017 	ldw	r15,64(sp)
        stw   et, %gprel(alt_stack_limit_value)(gp)
        stw   zero, %gprel(alt_exception_old_stack_limit)(gp)
#endif /* ALT_STACK_CHECK */
        ldw   sp,  76(sp)
#else /* ALT_EXCEPTION_STACK disabled */
        addi  sp, sp, 76
  8000f4:	dec01304 	addi	sp,sp,76

        /*
         * Return to the interrupted instruction.
         */

        eret
  8000f8:	ef80083a 	eret

008000fc <alt_irq_handler>:
  8000fc:	defffe04 	addi	sp,sp,-8
  800100:	dfc00115 	stw	ra,4(sp)
  800104:	dc000015 	stw	r16,0(sp)
  800108:	0009313a 	rdctl	r4,ipending
  80010c:	04002034 	movhi	r16,128
  800110:	84106704 	addi	r16,r16,16796
  800114:	0005883a 	mov	r2,zero
  800118:	00c00044 	movi	r3,1
  80011c:	20ca703a 	and	r5,r4,r3
  800120:	28000b26 	beq	r5,zero,800150 <alt_irq_handler+0x54>
  800124:	100490fa 	slli	r2,r2,3
  800128:	8085883a 	add	r2,r16,r2
  80012c:	10c00017 	ldw	r3,0(r2)
  800130:	11000117 	ldw	r4,4(r2)
  800134:	183ee83a 	callr	r3
  800138:	0009313a 	rdctl	r4,ipending
  80013c:	203ff51e 	bne	r4,zero,800114 <__alt_data_end+0xff800114>
  800140:	dfc00117 	ldw	ra,4(sp)
  800144:	dc000017 	ldw	r16,0(sp)
  800148:	dec00204 	addi	sp,sp,8
  80014c:	f800283a 	ret
  800150:	18c7883a 	add	r3,r3,r3
  800154:	10800044 	addi	r2,r2,1
  800158:	003ff006 	br	80011c <__alt_data_end+0xff80011c>

0080015c <alt_instruction_exception_entry>:
  80015c:	d0a0da17 	ldw	r2,-31896(gp)
  800160:	10000426 	beq	r2,zero,800174 <alt_instruction_exception_entry+0x18>
  800164:	200b883a 	mov	r5,r4
  800168:	000d883a 	mov	r6,zero
  80016c:	013fffc4 	movi	r4,-1
  800170:	1000683a 	jmp	r2
  800174:	003da03a 	break	0
  800178:	0005883a 	mov	r2,zero
  80017c:	f800283a 	ret

Disassembly of section .text:

00800180 <_start>:

    /*
     * Now that the caches are initialized, set up the stack pointer and global pointer.
     * The values provided by the linker are assumed to be correctly aligned.
     */
    movhi sp, %hi(__alt_stack_pointer)
  800180:	06c04034 	movhi	sp,256
    ori sp, sp, %lo(__alt_stack_pointer)
  800184:	dec00014 	ori	sp,sp,0
    movhi gp, %hi(_gp)
  800188:	06802034 	movhi	gp,128
    ori gp, gp, %lo(_gp)
  80018c:	d6aeec14 	ori	gp,gp,48048
 */
#ifndef ALT_SIM_OPTIMIZE
    /* Log that the BSS is about to be cleared. */
    ALT_LOG_PUTS(alt_log_msg_bss)

    movhi r2, %hi(__bss_start)
  800190:	00802034 	movhi	r2,128
    ori r2, r2, %lo(__bss_start)
  800194:	108fbe14 	ori	r2,r2,16120

    movhi r3, %hi(__bss_end)
  800198:	00c02034 	movhi	r3,128
    ori r3, r3, %lo(__bss_end)
  80019c:	18d0a714 	ori	r3,r3,17052

    beq r2, r3, 1f
  8001a0:	10c00326 	beq	r2,r3,8001b0 <_start+0x30>

0:
    stw zero, (r2)
  8001a4:	10000015 	stw	zero,0(r2)
    addi r2, r2, 4
  8001a8:	10800104 	addi	r2,r2,4
    bltu r2, r3, 0b
  8001ac:	10fffd36 	bltu	r2,r3,8001a4 <__alt_data_end+0xff8001a4>
     * section aren't defined until alt_load() has been called).
     */
    mov   et, zero
#endif

    call alt_load
  8001b0:	08025080 	call	802508 <alt_load>

    /* Log that alt_main is about to be called. */
    ALT_LOG_PUTS(alt_log_msg_alt_main)

    /* Call the C entry point. It should never return. */
    call alt_main
  8001b4:	08025e80 	call	8025e8 <alt_main>

008001b8 <alt_after_alt_main>:

    /* Wait in infinite loop in case alt_main does return. */
alt_after_alt_main:
    br alt_after_alt_main
  8001b8:	003fff06 	br	8001b8 <__alt_data_end+0xff8001b8>

008001bc <main>:

enum sampling_state  {five_Hz_sampling, one_Hz_sampling,dot2_Hz_sampling};


int main(void)
{
  8001bc:	defe5004 	addi	sp,sp,-1728
  8001c0:	dfc1af15 	stw	ra,1724(sp)
  8001c4:	df01ae15 	stw	fp,1720(sp)
  8001c8:	dc41ad15 	stw	r17,1716(sp)
  8001cc:	dc01ac15 	stw	r16,1712(sp)
  8001d0:	df01ae04 	addi	fp,sp,1720
	print_welcome_screen(); 	//"Splashscreen"
  8001d4:	08021b00 	call	8021b0 <print_welcome_screen>
	enum sampling_state state = one_Hz_sampling;
  8001d8:	00800044 	movi	r2,1
  8001dc:	e0be5215 	stw	r2,-1720(fp)
	static QUEUE q1; //Before I had static the program could suddenly restart, after it had
	//QUEUE q2;      // drawn
	//QUEUE q3;
	static QUEUE q4;//Before I had static the program could suddenly restart
	static QUEUE q5;
	 QUEUE* q11 = &q1;
  8001e0:	00802034 	movhi	r2,128
  8001e4:	108fc804 	addi	r2,r2,16160
  8001e8:	e0be5715 	stw	r2,-1700(fp)
	//QUEUE* q22 = &q2;
	//QUEUE* q33 = &q3;
	 QUEUE* q44 = &q4;
  8001ec:	00802034 	movhi	r2,128
  8001f0:	108ffd04 	addi	r2,r2,16372
  8001f4:	e0be5815 	stw	r2,-1696(fp)
	 QUEUE* q55 = &q5;
  8001f8:	00802034 	movhi	r2,128
  8001fc:	10903204 	addi	r2,r2,16584
  800200:	e0be5915 	stw	r2,-1692(fp)



	 SENSOR_OBJECT accelorometerX = //Accelerometer X
  800204:	009958f4 	movhi	r2,25955
  800208:	1098d044 	addi	r2,r2,25409
  80020c:	e0be5a15 	stw	r2,-1688(fp)
  800210:	009bdcb4 	movhi	r2,28530
  800214:	10995b04 	addi	r2,r2,25964
  800218:	e0be5b15 	stw	r2,-1684(fp)
  80021c:	009e0834 	movhi	r2,30752
  800220:	108b9b44 	addi	r2,r2,11885
  800224:	e0be5c15 	stw	r2,-1680(fp)
  800228:	e03e5d15 	stw	zero,-1676(fp)
  80022c:	e03e5e0d 	sth	zero,-1672(fp)
  800230:	e03e5e85 	stb	zero,-1670(fp)
  800234:	00800784 	movi	r2,30
  800238:	e0be5f15 	stw	r2,-1668(fp)
  80023c:	00800c84 	movi	r2,50
  800240:	e0be6015 	stw	r2,-1664(fp)
  800244:	00800044 	movi	r2,1
  800248:	e0be6115 	stw	r2,-1660(fp)
  80024c:	008f7374 	movhi	r2,15821
  800250:	10b33344 	addi	r2,r2,-13107
  800254:	e0be6215 	stw	r2,-1656(fp)
  800258:	00800784 	movi	r2,30
  80025c:	e0be6315 	stw	r2,-1652(fp)
  800260:	00800104 	movi	r2,4
  800264:	e0be6415 	stw	r2,-1648(fp)
  800268:	00802034 	movhi	r2,128
  80026c:	108fc804 	addi	r2,r2,16160
  800270:	e0fe6504 	addi	r3,fp,-1644
  800274:	1009883a 	mov	r4,r2
  800278:	00803504 	movi	r2,212
  80027c:	100d883a 	mov	r6,r2
  800280:	200b883a 	mov	r5,r4
  800284:	1809883a 	mov	r4,r3
  800288:	08024a40 	call	8024a4 <memcpy>
  80028c:	e0be5717 	ldw	r2,-1700(fp)
  800290:	e0be9a15 	stw	r2,-1432(fp)
  800294:	00802034 	movhi	r2,128
  800298:	1083e104 	addi	r2,r2,3972
  80029c:	e0be9b15 	stw	r2,-1428(fp)
  8002a0:	00802034 	movhi	r2,128
  8002a4:	1083ee04 	addi	r2,r2,4024
  8002a8:	e0be9c15 	stw	r2,-1424(fp)
  8002ac:	00802034 	movhi	r2,128
  8002b0:	10847004 	addi	r2,r2,4544
  8002b4:	e0be9d15 	stw	r2,-1420(fp)
  8002b8:	00802034 	movhi	r2,128
  8002bc:	10844604 	addi	r2,r2,4376
  8002c0:	e0be9e15 	stw	r2,-1416(fp)
  8002c4:	00802034 	movhi	r2,128
  8002c8:	10840104 	addi	r2,r2,4100
  8002cc:	e0be9f15 	stw	r2,-1412(fp)
					update_graph,
					&accelorometerZ,
					draw_graph
				};
*/
	 SENSOR_OBJECT temp_sensor =				//Temperatur sensorn
  8002d0:	009c1b74 	movhi	r2,28781
  8002d4:	10995504 	addi	r2,r2,25940
  8002d8:	e0bea015 	stw	r2,-1408(fp)
  8002dc:	009d1874 	movhi	r2,29793
  8002e0:	109c9944 	addi	r2,r2,29285
  8002e4:	e0bea115 	stw	r2,-1404(fp)
  8002e8:	00801974 	movhi	r2,101
  8002ec:	109c9d44 	addi	r2,r2,29301
  8002f0:	e0bea215 	stw	r2,-1400(fp)
  8002f4:	e03ea315 	stw	zero,-1396(fp)
  8002f8:	e03ea40d 	sth	zero,-1392(fp)
  8002fc:	e03ea485 	stb	zero,-1390(fp)
  800300:	00800784 	movi	r2,30
  800304:	e0bea515 	stw	r2,-1388(fp)
  800308:	00802d04 	movi	r2,180
  80030c:	e0bea615 	stw	r2,-1384(fp)
  800310:	00800044 	movi	r2,1
  800314:	e0bea715 	stw	r2,-1380(fp)
  800318:	0090b234 	movhi	r2,17096
  80031c:	e0bea815 	stw	r2,-1376(fp)
  800320:	00800284 	movi	r2,10
  800324:	e0bea915 	stw	r2,-1372(fp)
  800328:	00800104 	movi	r2,4
  80032c:	e0beaa15 	stw	r2,-1368(fp)
  800330:	00802034 	movhi	r2,128
  800334:	108ffd04 	addi	r2,r2,16372
  800338:	e0feab04 	addi	r3,fp,-1364
  80033c:	1009883a 	mov	r4,r2
  800340:	00803504 	movi	r2,212
  800344:	100d883a 	mov	r6,r2
  800348:	200b883a 	mov	r5,r4
  80034c:	1809883a 	mov	r4,r3
  800350:	08024a40 	call	8024a4 <memcpy>
  800354:	e0be5817 	ldw	r2,-1696(fp)
  800358:	e0bee015 	stw	r2,-1152(fp)
  80035c:	00802034 	movhi	r2,128
  800360:	1083e104 	addi	r2,r2,3972
  800364:	e0bee115 	stw	r2,-1148(fp)
  800368:	00802034 	movhi	r2,128
  80036c:	1083ee04 	addi	r2,r2,4024
  800370:	e0bee215 	stw	r2,-1144(fp)
  800374:	00802034 	movhi	r2,128
  800378:	1083a104 	addi	r2,r2,3716
  80037c:	e0bee315 	stw	r2,-1140(fp)
  800380:	00802034 	movhi	r2,128
  800384:	10844604 	addi	r2,r2,4376
  800388:	e0bee415 	stw	r2,-1136(fp)
  80038c:	00802034 	movhi	r2,128
  800390:	10840104 	addi	r2,r2,4100
  800394:	e0bee515 	stw	r2,-1132(fp)
						update_graph,
						//&temp_sensor,
						draw_graph
					};

	 SENSOR_OBJECT light_sensor =			//Ljussensorn
  800398:	009a19f4 	movhi	r2,26727
  80039c:	109a5304 	addi	r2,r2,26956
  8003a0:	e0bee615 	stw	r2,-1128(fp)
  8003a4:	00801d04 	movi	r2,116
  8003a8:	e0bee715 	stw	r2,-1124(fp)
  8003ac:	e03ee815 	stw	zero,-1120(fp)
  8003b0:	e03ee915 	stw	zero,-1116(fp)
  8003b4:	e03eea0d 	sth	zero,-1112(fp)
  8003b8:	e03eea85 	stb	zero,-1110(fp)
  8003bc:	00802204 	movi	r2,136
  8003c0:	e0beeb15 	stw	r2,-1108(fp)
  8003c4:	00802d04 	movi	r2,180
  8003c8:	e0beec15 	stw	r2,-1104(fp)
  8003cc:	00800044 	movi	r2,1
  8003d0:	e0beed15 	stw	r2,-1100(fp)
  8003d4:	0090b234 	movhi	r2,17096
  8003d8:	e0beee15 	stw	r2,-1096(fp)
  8003dc:	00800284 	movi	r2,10
  8003e0:	e0beef15 	stw	r2,-1092(fp)
  8003e4:	00800104 	movi	r2,4
  8003e8:	e0bef015 	stw	r2,-1088(fp)
  8003ec:	00802034 	movhi	r2,128
  8003f0:	10903204 	addi	r2,r2,16584
  8003f4:	e0fef104 	addi	r3,fp,-1084
  8003f8:	1009883a 	mov	r4,r2
  8003fc:	00803504 	movi	r2,212
  800400:	100d883a 	mov	r6,r2
  800404:	200b883a 	mov	r5,r4
  800408:	1809883a 	mov	r4,r3
  80040c:	08024a40 	call	8024a4 <memcpy>
  800410:	e0be5917 	ldw	r2,-1692(fp)
  800414:	e0bf2615 	stw	r2,-872(fp)
  800418:	00802034 	movhi	r2,128
  80041c:	1083e104 	addi	r2,r2,3972
  800420:	e0bf2715 	stw	r2,-868(fp)
  800424:	00802034 	movhi	r2,128
  800428:	1083ee04 	addi	r2,r2,4024
  80042c:	e0bf2815 	stw	r2,-864(fp)
  800430:	00802034 	movhi	r2,128
  800434:	1083c104 	addi	r2,r2,3844
  800438:	e0bf2915 	stw	r2,-860(fp)
  80043c:	00802034 	movhi	r2,128
  800440:	10844604 	addi	r2,r2,4376
  800444:	e0bf2a15 	stw	r2,-856(fp)
  800448:	00802034 	movhi	r2,128
  80044c:	10840104 	addi	r2,r2,4100
  800450:	e0bf2b15 	stw	r2,-852(fp)
							accelorometerY,
							accelorometerZ,
							temp_sensor,
							light_sensor};*/

	 SENSOR_OBJECT sensors[3]={accelorometerX,		//Array med sensor-objekt
  800454:	e0bf2c04 	addi	r2,fp,-848
  800458:	e0fe5a04 	addi	r3,fp,-1688
  80045c:	01004604 	movi	r4,280
  800460:	200d883a 	mov	r6,r4
  800464:	180b883a 	mov	r5,r3
  800468:	1009883a 	mov	r4,r2
  80046c:	08024a40 	call	8024a4 <memcpy>
  800470:	e0bf7204 	addi	r2,fp,-568
  800474:	e0fea004 	addi	r3,fp,-1408
  800478:	01004604 	movi	r4,280
  80047c:	200d883a 	mov	r6,r4
  800480:	180b883a 	mov	r5,r3
  800484:	1009883a 	mov	r4,r2
  800488:	08024a40 	call	8024a4 <memcpy>
  80048c:	e0bfb804 	addi	r2,fp,-288
  800490:	e0fee604 	addi	r3,fp,-1128
  800494:	01004604 	movi	r4,280
  800498:	200d883a 	mov	r6,r4
  80049c:	180b883a 	mov	r5,r3
  8004a0:	1009883a 	mov	r4,r2
  8004a4:	08024a40 	call	8024a4 <memcpy>
							  };


//Routin which clear screen and writes possibel sampling frquency at low-right
//of the screen
	 draw_sampling_frequecy_sub_screen();
  8004a8:	080187c0 	call	80187c <draw_sampling_frequecy_sub_screen>


//Initiering av sensorerna
		for(int i = 0; i<3; i++)
  8004ac:	e03e5315 	stw	zero,-1716(fp)
  8004b0:	00001206 	br	8004fc <main+0x340>
			sensors[i].init_measurement(&sensors[i]);
  8004b4:	e0be5317 	ldw	r2,-1716(fp)
  8004b8:	01404604 	movi	r5,280
  8004bc:	1009883a 	mov	r4,r2
  8004c0:	080240c0 	call	80240c <__mulsi3>
  8004c4:	e0fe5204 	addi	r3,fp,-1720
  8004c8:	1885883a 	add	r2,r3,r2
  8004cc:	10811c04 	addi	r2,r2,1136
  8004d0:	14000017 	ldw	r16,0(r2)
  8004d4:	e47f2c04 	addi	r17,fp,-848
  8004d8:	01404604 	movi	r5,280
  8004dc:	e13e5317 	ldw	r4,-1716(fp)
  8004e0:	080240c0 	call	80240c <__mulsi3>
  8004e4:	8885883a 	add	r2,r17,r2
  8004e8:	1009883a 	mov	r4,r2
  8004ec:	803ee83a 	callr	r16
//of the screen
	 draw_sampling_frequecy_sub_screen();


//Initiering av sensorerna
		for(int i = 0; i<3; i++)
  8004f0:	e0be5317 	ldw	r2,-1716(fp)
  8004f4:	10800044 	addi	r2,r2,1
  8004f8:	e0be5315 	stw	r2,-1716(fp)
  8004fc:	e0be5317 	ldw	r2,-1716(fp)
  800500:	108000d0 	cmplti	r2,r2,3
  800504:	103feb1e 	bne	r2,zero,8004b4 <__alt_data_end+0xff8004b4>

	while(1)
	{

//Check which sampling frequency the user wants
		if(IORD_32DIRECT(KEY_INPUT_BASE,0) == 6)//first button
  800508:	00804234 	movhi	r2,264
  80050c:	10848804 	addi	r2,r2,4640
  800510:	10800037 	ldwio	r2,0(r2)
  800514:	10800198 	cmpnei	r2,r2,6
  800518:	1000011e 	bne	r2,zero,800520 <main+0x364>
			state = five_Hz_sampling;
  80051c:	e03e5215 	stw	zero,-1720(fp)
		if(IORD_32DIRECT(KEY_INPUT_BASE,0) == 5)//snd button
  800520:	00804234 	movhi	r2,264
  800524:	10848804 	addi	r2,r2,4640
  800528:	10800037 	ldwio	r2,0(r2)
  80052c:	10800158 	cmpnei	r2,r2,5
  800530:	1000021e 	bne	r2,zero,80053c <main+0x380>
			state = one_Hz_sampling;
  800534:	00800044 	movi	r2,1
  800538:	e0be5215 	stw	r2,-1720(fp)
		if(IORD_32DIRECT(KEY_INPUT_BASE,0) == 3)//third button
  80053c:	00804234 	movhi	r2,264
  800540:	10848804 	addi	r2,r2,4640
  800544:	10800037 	ldwio	r2,0(r2)
  800548:	108000d8 	cmpnei	r2,r2,3
  80054c:	1000021e 	bne	r2,zero,800558 <main+0x39c>
					state = dot2_Hz_sampling;
  800550:	00800084 	movi	r2,2
  800554:	e0be5215 	stw	r2,-1720(fp)

		switch(state)
  800558:	e0be5217 	ldw	r2,-1720(fp)
  80055c:	10c00060 	cmpeqi	r3,r2,1
  800560:	18003f1e 	bne	r3,zero,800660 <main+0x4a4>
  800564:	0080032e 	bgeu	zero,r2,800574 <main+0x3b8>
  800568:	108000a0 	cmpeqi	r2,r2,2
  80056c:	1000771e 	bne	r2,zero,80074c <main+0x590>
  800570:	0000b106 	br	800838 <main+0x67c>
#ifdef DEBUG
			alt_printf("5Hz sampling\n");

#endif
//Highlite the text for the samplingfrequency 5Hz
			high_lite_5Hz_sampling_on_screen();
  800574:	08017900 	call	801790 <high_lite_5Hz_sampling_on_screen>

			for(int i = 0; i<3; i++)
  800578:	e03e5415 	stw	zero,-1712(fp)
  80057c:	00003406 	br	800650 <main+0x494>
			{
				sensors[i].configure_time_base(1,&sensors[i]);//För att illustrera koncept.Onödig.
  800580:	e0be5417 	ldw	r2,-1712(fp)
  800584:	01404604 	movi	r5,280
  800588:	1009883a 	mov	r4,r2
  80058c:	080240c0 	call	80240c <__mulsi3>
  800590:	e0fe5204 	addi	r3,fp,-1720
  800594:	1885883a 	add	r2,r3,r2
  800598:	10811b04 	addi	r2,r2,1132
  80059c:	14000017 	ldw	r16,0(r2)
  8005a0:	e47f2c04 	addi	r17,fp,-848
  8005a4:	01404604 	movi	r5,280
  8005a8:	e13e5417 	ldw	r4,-1712(fp)
  8005ac:	080240c0 	call	80240c <__mulsi3>
  8005b0:	8885883a 	add	r2,r17,r2
  8005b4:	100b883a 	mov	r5,r2
  8005b8:	01000044 	movi	r4,1
  8005bc:	803ee83a 	callr	r16
				sensors[i].read_sensor(sensors[i].q);   	  //Läs sensor
  8005c0:	e0be5417 	ldw	r2,-1712(fp)
  8005c4:	01404604 	movi	r5,280
  8005c8:	1009883a 	mov	r4,r2
  8005cc:	080240c0 	call	80240c <__mulsi3>
  8005d0:	e0fe5204 	addi	r3,fp,-1720
  8005d4:	1885883a 	add	r2,r3,r2
  8005d8:	10811d04 	addi	r2,r2,1140
  8005dc:	14000017 	ldw	r16,0(r2)
  8005e0:	e0be5417 	ldw	r2,-1712(fp)
  8005e4:	01404604 	movi	r5,280
  8005e8:	1009883a 	mov	r4,r2
  8005ec:	080240c0 	call	80240c <__mulsi3>
  8005f0:	e0fe5204 	addi	r3,fp,-1720
  8005f4:	1885883a 	add	r2,r3,r2
  8005f8:	10811a04 	addi	r2,r2,1128
  8005fc:	10800017 	ldw	r2,0(r2)
  800600:	1009883a 	mov	r4,r2
  800604:	803ee83a 	callr	r16
				sensors[i].update_graph(&sensors[i]);		  //Updatera korresponderande graf
  800608:	e0be5417 	ldw	r2,-1712(fp)
  80060c:	01404604 	movi	r5,280
  800610:	1009883a 	mov	r4,r2
  800614:	080240c0 	call	80240c <__mulsi3>
  800618:	e0fe5204 	addi	r3,fp,-1720
  80061c:	1885883a 	add	r2,r3,r2
  800620:	10811e04 	addi	r2,r2,1144
  800624:	14000017 	ldw	r16,0(r2)
  800628:	e47f2c04 	addi	r17,fp,-848
  80062c:	01404604 	movi	r5,280
  800630:	e13e5417 	ldw	r4,-1712(fp)
  800634:	080240c0 	call	80240c <__mulsi3>
  800638:	8885883a 	add	r2,r17,r2
  80063c:	1009883a 	mov	r4,r2
  800640:	803ee83a 	callr	r16

#endif
//Highlite the text for the samplingfrequency 5Hz
			high_lite_5Hz_sampling_on_screen();

			for(int i = 0; i<3; i++)
  800644:	e0be5417 	ldw	r2,-1712(fp)
  800648:	10800044 	addi	r2,r2,1
  80064c:	e0be5415 	stw	r2,-1712(fp)
  800650:	e0be5417 	ldw	r2,-1712(fp)
  800654:	108000d0 	cmplti	r2,r2,3
  800658:	103fc91e 	bne	r2,zero,800580 <__alt_data_end+0xff800580>
			{
				sensors[i].configure_time_base(1,&sensors[i]);//För att illustrera koncept.Onödig.
				sensors[i].read_sensor(sensors[i].q);   	  //Läs sensor
				sensors[i].update_graph(&sensors[i]);		  //Updatera korresponderande graf
			}
			break;
  80065c:	00007606 	br	800838 <main+0x67c>
		case one_Hz_sampling:
#ifdef DEBUG
			alt_printf("slow\n");

#endif
			high_lite_1Hz_sampling_on_screen();
  800660:	08016cc0 	call	8016cc <high_lite_1Hz_sampling_on_screen>

			for(int i = 0; i<3; i++)
  800664:	e03e5515 	stw	zero,-1708(fp)
  800668:	00003406 	br	80073c <main+0x580>
			{
				sensors[i].configure_time_base(10,&sensors[i]);//För att illustrera koncept.Onödig.
  80066c:	e0be5517 	ldw	r2,-1708(fp)
  800670:	01404604 	movi	r5,280
  800674:	1009883a 	mov	r4,r2
  800678:	080240c0 	call	80240c <__mulsi3>
  80067c:	e0fe5204 	addi	r3,fp,-1720
  800680:	1885883a 	add	r2,r3,r2
  800684:	10811b04 	addi	r2,r2,1132
  800688:	14000017 	ldw	r16,0(r2)
  80068c:	e47f2c04 	addi	r17,fp,-848
  800690:	01404604 	movi	r5,280
  800694:	e13e5517 	ldw	r4,-1708(fp)
  800698:	080240c0 	call	80240c <__mulsi3>
  80069c:	8885883a 	add	r2,r17,r2
  8006a0:	100b883a 	mov	r5,r2
  8006a4:	01000284 	movi	r4,10
  8006a8:	803ee83a 	callr	r16
				sensors[i].read_sensor(sensors[i].q);			//Läs sensor
  8006ac:	e0be5517 	ldw	r2,-1708(fp)
  8006b0:	01404604 	movi	r5,280
  8006b4:	1009883a 	mov	r4,r2
  8006b8:	080240c0 	call	80240c <__mulsi3>
  8006bc:	e0fe5204 	addi	r3,fp,-1720
  8006c0:	1885883a 	add	r2,r3,r2
  8006c4:	10811d04 	addi	r2,r2,1140
  8006c8:	14000017 	ldw	r16,0(r2)
  8006cc:	e0be5517 	ldw	r2,-1708(fp)
  8006d0:	01404604 	movi	r5,280
  8006d4:	1009883a 	mov	r4,r2
  8006d8:	080240c0 	call	80240c <__mulsi3>
  8006dc:	e0fe5204 	addi	r3,fp,-1720
  8006e0:	1885883a 	add	r2,r3,r2
  8006e4:	10811a04 	addi	r2,r2,1128
  8006e8:	10800017 	ldw	r2,0(r2)
  8006ec:	1009883a 	mov	r4,r2
  8006f0:	803ee83a 	callr	r16
				sensors[i].update_graph(&sensors[i]);			//Updatera korresponderande graf
  8006f4:	e0be5517 	ldw	r2,-1708(fp)
  8006f8:	01404604 	movi	r5,280
  8006fc:	1009883a 	mov	r4,r2
  800700:	080240c0 	call	80240c <__mulsi3>
  800704:	e0fe5204 	addi	r3,fp,-1720
  800708:	1885883a 	add	r2,r3,r2
  80070c:	10811e04 	addi	r2,r2,1144
  800710:	14000017 	ldw	r16,0(r2)
  800714:	e47f2c04 	addi	r17,fp,-848
  800718:	01404604 	movi	r5,280
  80071c:	e13e5517 	ldw	r4,-1708(fp)
  800720:	080240c0 	call	80240c <__mulsi3>
  800724:	8885883a 	add	r2,r17,r2
  800728:	1009883a 	mov	r4,r2
  80072c:	803ee83a 	callr	r16
			alt_printf("slow\n");

#endif
			high_lite_1Hz_sampling_on_screen();

			for(int i = 0; i<3; i++)
  800730:	e0be5517 	ldw	r2,-1708(fp)
  800734:	10800044 	addi	r2,r2,1
  800738:	e0be5515 	stw	r2,-1708(fp)
  80073c:	e0be5517 	ldw	r2,-1708(fp)
  800740:	108000d0 	cmplti	r2,r2,3
  800744:	103fc91e 	bne	r2,zero,80066c <__alt_data_end+0xff80066c>
			{
				sensors[i].configure_time_base(10,&sensors[i]);//För att illustrera koncept.Onödig.
				sensors[i].read_sensor(sensors[i].q);			//Läs sensor
				sensors[i].update_graph(&sensors[i]);			//Updatera korresponderande graf
			}
           break;
  800748:	00003b06 	br	800838 <main+0x67c>
		case dot2_Hz_sampling:
		#ifdef DEBUG
					alt_printf("0.5 sampling rate\n");

		#endif
					high_lite_dot2Hz_sampling_on_screen();
  80074c:	08015f80 	call	8015f8 <high_lite_dot2Hz_sampling_on_screen>

					for(int i = 0; i<3; i++)
  800750:	e03e5615 	stw	zero,-1704(fp)
  800754:	00003406 	br	800828 <main+0x66c>
					{
						sensors[i].configure_time_base(10,&sensors[i]);//För att illustrera koncept.Onödig.
  800758:	e0be5617 	ldw	r2,-1704(fp)
  80075c:	01404604 	movi	r5,280
  800760:	1009883a 	mov	r4,r2
  800764:	080240c0 	call	80240c <__mulsi3>
  800768:	e0fe5204 	addi	r3,fp,-1720
  80076c:	1885883a 	add	r2,r3,r2
  800770:	10811b04 	addi	r2,r2,1132
  800774:	14000017 	ldw	r16,0(r2)
  800778:	e47f2c04 	addi	r17,fp,-848
  80077c:	01404604 	movi	r5,280
  800780:	e13e5617 	ldw	r4,-1704(fp)
  800784:	080240c0 	call	80240c <__mulsi3>
  800788:	8885883a 	add	r2,r17,r2
  80078c:	100b883a 	mov	r5,r2
  800790:	01000284 	movi	r4,10
  800794:	803ee83a 	callr	r16
						sensors[i].read_sensor(sensors[i].q);			//Läs sensor
  800798:	e0be5617 	ldw	r2,-1704(fp)
  80079c:	01404604 	movi	r5,280
  8007a0:	1009883a 	mov	r4,r2
  8007a4:	080240c0 	call	80240c <__mulsi3>
  8007a8:	e0fe5204 	addi	r3,fp,-1720
  8007ac:	1885883a 	add	r2,r3,r2
  8007b0:	10811d04 	addi	r2,r2,1140
  8007b4:	14000017 	ldw	r16,0(r2)
  8007b8:	e0be5617 	ldw	r2,-1704(fp)
  8007bc:	01404604 	movi	r5,280
  8007c0:	1009883a 	mov	r4,r2
  8007c4:	080240c0 	call	80240c <__mulsi3>
  8007c8:	e0fe5204 	addi	r3,fp,-1720
  8007cc:	1885883a 	add	r2,r3,r2
  8007d0:	10811a04 	addi	r2,r2,1128
  8007d4:	10800017 	ldw	r2,0(r2)
  8007d8:	1009883a 	mov	r4,r2
  8007dc:	803ee83a 	callr	r16
						sensors[i].update_graph(&sensors[i]);			//Updatera korresponderande graf
  8007e0:	e0be5617 	ldw	r2,-1704(fp)
  8007e4:	01404604 	movi	r5,280
  8007e8:	1009883a 	mov	r4,r2
  8007ec:	080240c0 	call	80240c <__mulsi3>
  8007f0:	e0fe5204 	addi	r3,fp,-1720
  8007f4:	1885883a 	add	r2,r3,r2
  8007f8:	10811e04 	addi	r2,r2,1144
  8007fc:	14000017 	ldw	r16,0(r2)
  800800:	e47f2c04 	addi	r17,fp,-848
  800804:	01404604 	movi	r5,280
  800808:	e13e5617 	ldw	r4,-1704(fp)
  80080c:	080240c0 	call	80240c <__mulsi3>
  800810:	8885883a 	add	r2,r17,r2
  800814:	1009883a 	mov	r4,r2
  800818:	803ee83a 	callr	r16
					alt_printf("0.5 sampling rate\n");

		#endif
					high_lite_dot2Hz_sampling_on_screen();

					for(int i = 0; i<3; i++)
  80081c:	e0be5617 	ldw	r2,-1704(fp)
  800820:	10800044 	addi	r2,r2,1
  800824:	e0be5615 	stw	r2,-1704(fp)
  800828:	e0be5617 	ldw	r2,-1704(fp)
  80082c:	108000d0 	cmplti	r2,r2,3
  800830:	103fc91e 	bne	r2,zero,800758 <__alt_data_end+0xff800758>
					{
						sensors[i].configure_time_base(10,&sensors[i]);//För att illustrera koncept.Onödig.
						sensors[i].read_sensor(sensors[i].q);			//Läs sensor
						sensors[i].update_graph(&sensors[i]);			//Updatera korresponderande graf
					}
		           break;
  800834:	0001883a 	nop
		}//switch
	}//while
  800838:	003f3306 	br	800508 <__alt_data_end+0xff800508>

0080083c <queue_init>:
// */

#include "sensor.h"

void queue_init(QUEUE *q)
{
  80083c:	defffc04 	addi	sp,sp,-16
  800840:	dfc00315 	stw	ra,12(sp)
  800844:	df000215 	stw	fp,8(sp)
  800848:	df000204 	addi	fp,sp,8
  80084c:	e13fff15 	stw	r4,-4(fp)
    memset(q,0,sizeof(QUEUE)); //Zeroing the array
  800850:	01803504 	movi	r6,212
  800854:	000b883a 	mov	r5,zero
  800858:	e13fff17 	ldw	r4,-4(fp)
  80085c:	08024cc0 	call	8024cc <memset>
    q->rindex = 0;//Probably un-necessay to do this, because of the above line
  800860:	e0bfff17 	ldw	r2,-4(fp)
  800864:	10003215 	stw	zero,200(r2)
    q->windex = 0;
  800868:	e0bfff17 	ldw	r2,-4(fp)
  80086c:	10003315 	stw	zero,204(r2)
    q->numitems = 0;
  800870:	e0bfff17 	ldw	r2,-4(fp)
  800874:	10003415 	stw	zero,208(r2)
    for(int i = 0; i < QUEUESIZE; i++ )
  800878:	e03ffe15 	stw	zero,-8(fp)
  80087c:	00000906 	br	8008a4 <queue_init+0x68>
    	q->items[i] = 0;
  800880:	e0ffff17 	ldw	r3,-4(fp)
  800884:	e0bffe17 	ldw	r2,-8(fp)
  800888:	1085883a 	add	r2,r2,r2
  80088c:	1085883a 	add	r2,r2,r2
  800890:	1885883a 	add	r2,r3,r2
  800894:	10000015 	stw	zero,0(r2)
{
    memset(q,0,sizeof(QUEUE)); //Zeroing the array
    q->rindex = 0;//Probably un-necessay to do this, because of the above line
    q->windex = 0;
    q->numitems = 0;
    for(int i = 0; i < QUEUESIZE; i++ )
  800898:	e0bffe17 	ldw	r2,-8(fp)
  80089c:	10800044 	addi	r2,r2,1
  8008a0:	e0bffe15 	stw	r2,-8(fp)
  8008a4:	e0bffe17 	ldw	r2,-8(fp)
  8008a8:	10800c90 	cmplti	r2,r2,50
  8008ac:	103ff41e 	bne	r2,zero,800880 <__alt_data_end+0xff800880>
    	q->items[i] = 0;
}
  8008b0:	0001883a 	nop
  8008b4:	e037883a 	mov	sp,fp
  8008b8:	dfc00117 	ldw	ra,4(sp)
  8008bc:	df000017 	ldw	fp,0(sp)
  8008c0:	dec00204 	addi	sp,sp,8
  8008c4:	f800283a 	ret

008008c8 <queue_enqueue>:

alt_32 queue_enqueue(QUEUE *q, alt_32 item)
{
  8008c8:	deffc804 	addi	sp,sp,-224
  8008cc:	dfc03715 	stw	ra,220(sp)
  8008d0:	df003615 	stw	fp,216(sp)
  8008d4:	df003604 	addi	fp,sp,216
  8008d8:	e13ffe15 	stw	r4,-8(fp)
  8008dc:	e17fff15 	stw	r5,-4(fp)
    alt_u32 num_items = q->numitems;
  8008e0:	e0bffe17 	ldw	r2,-8(fp)
  8008e4:	10803417 	ldw	r2,208(r2)
  8008e8:	e0bfcb15 	stw	r2,-212(fp)
    //int* temp_array;
    alt_32 temp_array[QUEUESIZE]={0};//Zeroing, does it work?
  8008ec:	e0bfcc04 	addi	r2,fp,-208
  8008f0:	00c03204 	movi	r3,200
  8008f4:	180d883a 	mov	r6,r3
  8008f8:	000b883a 	mov	r5,zero
  8008fc:	1009883a 	mov	r4,r2
  800900:	08024cc0 	call	8024cc <memset>
    int i;
    for( i = 0; i < QUEUESIZE; i++ )//Zeroing again just for sure
  800904:	e03fca15 	stw	zero,-216(fp)
  800908:	00000a06 	br	800934 <queue_enqueue+0x6c>
    	temp_array[i] = 0;
  80090c:	e0bfca17 	ldw	r2,-216(fp)
  800910:	1085883a 	add	r2,r2,r2
  800914:	1085883a 	add	r2,r2,r2
  800918:	e0ffca04 	addi	r3,fp,-216
  80091c:	1885883a 	add	r2,r3,r2
  800920:	10800204 	addi	r2,r2,8
  800924:	10000015 	stw	zero,0(r2)
{
    alt_u32 num_items = q->numitems;
    //int* temp_array;
    alt_32 temp_array[QUEUESIZE]={0};//Zeroing, does it work?
    int i;
    for( i = 0; i < QUEUESIZE; i++ )//Zeroing again just for sure
  800928:	e0bfca17 	ldw	r2,-216(fp)
  80092c:	10800044 	addi	r2,r2,1
  800930:	e0bfca15 	stw	r2,-216(fp)
  800934:	e0bfca17 	ldw	r2,-216(fp)
  800938:	10800c90 	cmplti	r2,r2,50
  80093c:	103ff31e 	bne	r2,zero,80090c <__alt_data_end+0xff80090c>
    	temp_array[i] = 0;
    //memset(temp_array,0,sizeof(temp_array));//Zeroing just for bughunt

    if(num_items < QUEUESIZE)           //Check to see if the queue is not filled
  800940:	e0bfcb17 	ldw	r2,-212(fp)
  800944:	10800ca8 	cmpgeui	r2,r2,50
  800948:	10003c1e 	bne	r2,zero,800a3c <queue_enqueue+0x174>
    //  num_items is allowed to reach QUEUESIZE -1 as maximum
    {

    	//At maximum QUEUESIZE-1 items are copied.
    	for(i = 0; i < num_items; i++)
  80094c:	e03fca15 	stw	zero,-216(fp)
  800950:	00001006 	br	800994 <queue_enqueue+0xcc>
            temp_array[i]= q->items[i];       //Copy the queue to temp array
  800954:	e0fffe17 	ldw	r3,-8(fp)
  800958:	e0bfca17 	ldw	r2,-216(fp)
  80095c:	1085883a 	add	r2,r2,r2
  800960:	1085883a 	add	r2,r2,r2
  800964:	1885883a 	add	r2,r3,r2
  800968:	10c00017 	ldw	r3,0(r2)
  80096c:	e0bfca17 	ldw	r2,-216(fp)
  800970:	1085883a 	add	r2,r2,r2
  800974:	1085883a 	add	r2,r2,r2
  800978:	e13fca04 	addi	r4,fp,-216
  80097c:	2085883a 	add	r2,r4,r2
  800980:	10800204 	addi	r2,r2,8
  800984:	10c00015 	stw	r3,0(r2)
    if(num_items < QUEUESIZE)           //Check to see if the queue is not filled
    //  num_items is allowed to reach QUEUESIZE -1 as maximum
    {

    	//At maximum QUEUESIZE-1 items are copied.
    	for(i = 0; i < num_items; i++)
  800988:	e0bfca17 	ldw	r2,-216(fp)
  80098c:	10800044 	addi	r2,r2,1
  800990:	e0bfca15 	stw	r2,-216(fp)
  800994:	e0ffca17 	ldw	r3,-216(fp)
  800998:	e0bfcb17 	ldw	r2,-212(fp)
  80099c:	18bfed36 	bltu	r3,r2,800954 <__alt_data_end+0xff800954>
            temp_array[i]= q->items[i];       //Copy the queue to temp array

        q->items[0] = item;                    //Insert the new item in the queue, always at index 0
  8009a0:	e0bffe17 	ldw	r2,-8(fp)
  8009a4:	e0ffff17 	ldw	r3,-4(fp)
  8009a8:	10c00015 	stw	r3,0(r2)

        //Here i goes up to i < num_item +1 = QUEUESIZE -1 +1 = QUEUESIZE
        //thus for loop below goes as high as i < QUEUESIZE
        //for loop places items on index 1 until index QUEUESIZE-1
        for ( i = 1; i < num_items +1; i++)     //Copy back the items from temp array
  8009ac:	00800044 	movi	r2,1
  8009b0:	e0bfca15 	stw	r2,-216(fp)
  8009b4:	00001106 	br	8009fc <queue_enqueue+0x134>
            q->items[i] = temp_array[i-1];
  8009b8:	e0bfca17 	ldw	r2,-216(fp)
  8009bc:	10bfffc4 	addi	r2,r2,-1
  8009c0:	1085883a 	add	r2,r2,r2
  8009c4:	1085883a 	add	r2,r2,r2
  8009c8:	e0ffca04 	addi	r3,fp,-216
  8009cc:	1885883a 	add	r2,r3,r2
  8009d0:	10800204 	addi	r2,r2,8
  8009d4:	10c00017 	ldw	r3,0(r2)
  8009d8:	e13ffe17 	ldw	r4,-8(fp)
  8009dc:	e0bfca17 	ldw	r2,-216(fp)
  8009e0:	1085883a 	add	r2,r2,r2
  8009e4:	1085883a 	add	r2,r2,r2
  8009e8:	2085883a 	add	r2,r4,r2
  8009ec:	10c00015 	stw	r3,0(r2)
        q->items[0] = item;                    //Insert the new item in the queue, always at index 0

        //Here i goes up to i < num_item +1 = QUEUESIZE -1 +1 = QUEUESIZE
        //thus for loop below goes as high as i < QUEUESIZE
        //for loop places items on index 1 until index QUEUESIZE-1
        for ( i = 1; i < num_items +1; i++)     //Copy back the items from temp array
  8009f0:	e0bfca17 	ldw	r2,-216(fp)
  8009f4:	10800044 	addi	r2,r2,1
  8009f8:	e0bfca15 	stw	r2,-216(fp)
  8009fc:	e0bfcb17 	ldw	r2,-212(fp)
  800a00:	10800044 	addi	r2,r2,1
  800a04:	e0ffca17 	ldw	r3,-216(fp)
  800a08:	18bfeb36 	bltu	r3,r2,8009b8 <__alt_data_end+0xff8009b8>
            q->items[i] = temp_array[i-1];
        //After the above for-loop items are placed from index 0
        //to as high as index QUEUESIZE -1, THUS QUEUESIZE NO. OF ELEMENTS ARE PLACED
        //AT MAXIMUM!

        q->numitems++;                          //increment the number of items
  800a0c:	e0bffe17 	ldw	r2,-8(fp)
  800a10:	10803417 	ldw	r2,208(r2)
  800a14:	10c00044 	addi	r3,r2,1
  800a18:	e0bffe17 	ldw	r2,-8(fp)
  800a1c:	10c03415 	stw	r3,208(r2)
        q->rindex++;                            //Increment the queue pointer so it points to the next free position in the queue
  800a20:	e0bffe17 	ldw	r2,-8(fp)
  800a24:	10803217 	ldw	r2,200(r2)
  800a28:	10c00044 	addi	r3,r2,1
  800a2c:	e0bffe17 	ldw	r2,-8(fp)
  800a30:	10c03215 	stw	r3,200(r2)
        return 1;                               //The enqueue succeeded
  800a34:	00800044 	movi	r2,1
  800a38:	00000106 	br	800a40 <queue_enqueue+0x178>
    }
    else return 0;          //The queue is filled, cannot insert more
  800a3c:	0005883a 	mov	r2,zero

}
  800a40:	e037883a 	mov	sp,fp
  800a44:	dfc00117 	ldw	ra,4(sp)
  800a48:	df000017 	ldw	fp,0(sp)
  800a4c:	dec00204 	addi	sp,sp,8
  800a50:	f800283a 	ret

00800a54 <queue_dequeue>:

alt_32 queue_dequeue(QUEUE *q)
{
  800a54:	defffd04 	addi	sp,sp,-12
  800a58:	df000215 	stw	fp,8(sp)
  800a5c:	df000204 	addi	fp,sp,8
  800a60:	e13fff15 	stw	r4,-4(fp)
    alt_u32 num_items = q->numitems;
  800a64:	e0bfff17 	ldw	r2,-4(fp)
  800a68:	10803417 	ldw	r2,208(r2)
  800a6c:	e0bffe15 	stw	r2,-8(fp)

    if (! num_items == 0)// The queue contains items
  800a70:	e0bffe17 	ldw	r2,-8(fp)
  800a74:	10000c26 	beq	r2,zero,800aa8 <queue_dequeue+0x54>
    {
        q->rindex--; //Decrement the end pointer because it points to a at the first empty position in the FIFO
  800a78:	e0bfff17 	ldw	r2,-4(fp)
  800a7c:	10803217 	ldw	r2,200(r2)
  800a80:	10ffffc4 	addi	r3,r2,-1
  800a84:	e0bfff17 	ldw	r2,-4(fp)
  800a88:	10c03215 	stw	r3,200(r2)
         q->numitems--;                 //Decrement the number of items in the queue
  800a8c:	e0bfff17 	ldw	r2,-4(fp)
  800a90:	10803417 	ldw	r2,208(r2)
  800a94:	10ffffc4 	addi	r3,r2,-1
  800a98:	e0bfff17 	ldw	r2,-4(fp)
  800a9c:	10c03415 	stw	r3,208(r2)
         return 1;                      //Return success because the dequeing succeeded/ the queue was not empty
  800aa0:	00800044 	movi	r2,1
  800aa4:	00000106 	br	800aac <queue_dequeue+0x58>
    }
    else return 0;          //The queue is empty, nothing can be dequeued
  800aa8:	0005883a 	mov	r2,zero


}
  800aac:	e037883a 	mov	sp,fp
  800ab0:	df000017 	ldw	fp,0(sp)
  800ab4:	dec00104 	addi	sp,sp,4
  800ab8:	f800283a 	ret

00800abc <queue_print>:


void queue_print(const QUEUE *q)
{
  800abc:	defffd04 	addi	sp,sp,-12
  800ac0:	df000215 	stw	fp,8(sp)
  800ac4:	df000204 	addi	fp,sp,8
  800ac8:	e13fff15 	stw	r4,-4(fp)
    int i = 0;
  800acc:	e03ffe15 	stw	zero,-8(fp)
    for (i = q->numitems-1; i>= 0; i--){  //print in FIFO order, oldest first
  800ad0:	e0bfff17 	ldw	r2,-4(fp)
  800ad4:	10803417 	ldw	r2,208(r2)
  800ad8:	10bfffc4 	addi	r2,r2,-1
  800adc:	e0bffe15 	stw	r2,-8(fp)
  800ae0:	00000306 	br	800af0 <queue_print+0x34>
  800ae4:	e0bffe17 	ldw	r2,-8(fp)
  800ae8:	10bfffc4 	addi	r2,r2,-1
  800aec:	e0bffe15 	stw	r2,-8(fp)
  800af0:	e0bffe17 	ldw	r2,-8(fp)
  800af4:	103ffb0e 	bge	r2,zero,800ae4 <__alt_data_end+0xff800ae4>
#ifdef DEBUG
        alt_printf("%d\n", q->items[i] );
#endif
    }
}
  800af8:	0001883a 	nop
  800afc:	e037883a 	mov	sp,fp
  800b00:	df000017 	ldw	fp,0(sp)
  800b04:	dec00104 	addi	sp,sp,4
  800b08:	f800283a 	ret

00800b0c <queue_print_screen>:
void queue_print_screen( const QUEUE *q, const alt_u32 x_origo, const  alt_u32 y_origo, alt_32 normalization, alt_32 offset, const alt_u32 rgb, SENSOR_OBJECT* sensor_obj_ptr){
  800b0c:	defff004 	addi	sp,sp,-64
  800b10:	dfc00f15 	stw	ra,60(sp)
  800b14:	df000e15 	stw	fp,56(sp)
  800b18:	df000e04 	addi	fp,sp,56
  800b1c:	e13ffc15 	stw	r4,-16(fp)
  800b20:	e17ffd15 	stw	r5,-12(fp)
  800b24:	e1bffe15 	stw	r6,-8(fp)
  800b28:	e1ffff15 	stw	r7,-4(fp)
	 int i = 0;
  800b2c:	e03ff315 	stw	zero,-52(fp)
	 int j;
	 alt_32 mean = 0;
  800b30:	e03ff715 	stw	zero,-36(fp)
	 alt_32 sum = 0;
  800b34:	e03ff415 	stw	zero,-48(fp)
	 alt_32 value;



	 // For all measusrement values...
	    for (i = q->numitems-1; i>= 0; i--){  //print in FIFO order, oldest first
  800b38:	e0bffc17 	ldw	r2,-16(fp)
  800b3c:	10803417 	ldw	r2,208(r2)
  800b40:	10bfffc4 	addi	r2,r2,-1
  800b44:	e0bff315 	stw	r2,-52(fp)
  800b48:	00004d06 	br	800c80 <queue_print_screen+0x174>

#ifdef DEBUG
	        alt_printf("Un-normalized %d\n normalized %d\n", q->items[i],q->items[i]/normalization );
#endif
	        j = q->numitems-1 -i;
  800b4c:	e0bffc17 	ldw	r2,-16(fp)
  800b50:	10c03417 	ldw	r3,208(r2)
  800b54:	e0bff317 	ldw	r2,-52(fp)
  800b58:	1885c83a 	sub	r2,r3,r2
  800b5c:	10bfffc4 	addi	r2,r2,-1
  800b60:	e0bff815 	stw	r2,-32(fp)
	        sum = sum + q->items[i]; // calculate the sum of all measurements
  800b64:	e0fffc17 	ldw	r3,-16(fp)
  800b68:	e0bff317 	ldw	r2,-52(fp)
  800b6c:	1085883a 	add	r2,r2,r2
  800b70:	1085883a 	add	r2,r2,r2
  800b74:	1885883a 	add	r2,r3,r2
  800b78:	10800017 	ldw	r2,0(r2)
  800b7c:	e0fff417 	ldw	r3,-48(fp)
  800b80:	1885883a 	add	r2,r3,r2
  800b84:	e0bff415 	stw	r2,-48(fp)
#ifdef DEBUG
	        alt_printf("j%d\n",j);
#endif

	        for(int k = 1; k < 55;k++)
  800b88:	00800044 	movi	r2,1
  800b8c:	e0bff615 	stw	r2,-40(fp)
  800b90:	00000c06 	br	800bc4 <queue_print_screen+0xb8>
	        	print_pix(x_origo + j, y_origo-k,0);//Blank out previous measurement
  800b94:	e0fff817 	ldw	r3,-32(fp)
  800b98:	e0bffd17 	ldw	r2,-12(fp)
  800b9c:	1889883a 	add	r4,r3,r2
  800ba0:	e0bff617 	ldw	r2,-40(fp)
  800ba4:	e0fffe17 	ldw	r3,-8(fp)
  800ba8:	1885c83a 	sub	r2,r3,r2
  800bac:	000d883a 	mov	r6,zero
  800bb0:	100b883a 	mov	r5,r2
  800bb4:	08019840 	call	801984 <print_pix>
	        sum = sum + q->items[i]; // calculate the sum of all measurements
#ifdef DEBUG
	        alt_printf("j%d\n",j);
#endif

	        for(int k = 1; k < 55;k++)
  800bb8:	e0bff617 	ldw	r2,-40(fp)
  800bbc:	10800044 	addi	r2,r2,1
  800bc0:	e0bff615 	stw	r2,-40(fp)
  800bc4:	e0bff617 	ldw	r2,-40(fp)
  800bc8:	10800dd0 	cmplti	r2,r2,55
  800bcc:	103ff11e 	bne	r2,zero,800b94 <__alt_data_end+0xff800b94>
	        	print_pix(x_origo + j, y_origo-k,0);//Blank out previous measurement

	        print_pix(x_origo + j, y_origo,7);//Fix coordinate system line from previous blanking
  800bd0:	e0fff817 	ldw	r3,-32(fp)
  800bd4:	e0bffd17 	ldw	r2,-12(fp)
  800bd8:	1885883a 	add	r2,r3,r2
  800bdc:	018001c4 	movi	r6,7
  800be0:	e17ffe17 	ldw	r5,-8(fp)
  800be4:	1009883a 	mov	r4,r2
  800be8:	08019840 	call	801984 <print_pix>
	        sensor_obj_ptr->draw_graph_axes(sensor_obj_ptr); // Redraw of graph axes just for sure. Don't need to
  800bec:	e0800417 	ldw	r2,16(fp)
  800bf0:	10804517 	ldw	r2,276(r2)
  800bf4:	e1000417 	ldw	r4,16(fp)
  800bf8:	103ee83a 	callr	r2

	        value = offset + (alt_32)(q->items[i]/normalization); //Add offset and normalize each measurement value
  800bfc:	e0fffc17 	ldw	r3,-16(fp)
  800c00:	e0bff317 	ldw	r2,-52(fp)
  800c04:	1085883a 	add	r2,r2,r2
  800c08:	1085883a 	add	r2,r2,r2
  800c0c:	1885883a 	add	r2,r3,r2
  800c10:	10800017 	ldw	r2,0(r2)
  800c14:	e17fff17 	ldw	r5,-4(fp)
  800c18:	1009883a 	mov	r4,r2
  800c1c:	08022580 	call	802258 <__divsi3>
  800c20:	1007883a 	mov	r3,r2
  800c24:	e0800217 	ldw	r2,8(fp)
  800c28:	1885883a 	add	r2,r3,r2
  800c2c:	e0bff515 	stw	r2,-44(fp)

	        if(value > 40) //Roof each value
  800c30:	e0bff517 	ldw	r2,-44(fp)
  800c34:	10800a50 	cmplti	r2,r2,41
  800c38:	1000021e 	bne	r2,zero,800c44 <queue_print_screen+0x138>
	        	value = 40;
  800c3c:	00800a04 	movi	r2,40
  800c40:	e0bff515 	stw	r2,-44(fp)
	        if (value < 0)//Floor each value
  800c44:	e0bff517 	ldw	r2,-44(fp)
  800c48:	1000010e 	bge	r2,zero,800c50 <queue_print_screen+0x144>
	          value = 0;
  800c4c:	e03ff515 	stw	zero,-44(fp)

	        print_pix(x_origo + j,y_origo-value,rgb);  //Print the value on screen as a dot
  800c50:	e0fff817 	ldw	r3,-32(fp)
  800c54:	e0bffd17 	ldw	r2,-12(fp)
  800c58:	1889883a 	add	r4,r3,r2
  800c5c:	e0bff517 	ldw	r2,-44(fp)
  800c60:	e0fffe17 	ldw	r3,-8(fp)
  800c64:	1885c83a 	sub	r2,r3,r2
  800c68:	e1800317 	ldw	r6,12(fp)
  800c6c:	100b883a 	mov	r5,r2
  800c70:	08019840 	call	801984 <print_pix>
	 alt_32 value;



	 // For all measusrement values...
	    for (i = q->numitems-1; i>= 0; i--){  //print in FIFO order, oldest first
  800c74:	e0bff317 	ldw	r2,-52(fp)
  800c78:	10bfffc4 	addi	r2,r2,-1
  800c7c:	e0bff315 	stw	r2,-52(fp)
  800c80:	e0bff317 	ldw	r2,-52(fp)
  800c84:	103fb10e 	bge	r2,zero,800b4c <__alt_data_end+0xff800b4c>
	          value = 0;

	        print_pix(x_origo + j,y_origo-value,rgb);  //Print the value on screen as a dot

	    }
	    mean = sum/q->numitems;// calculate the mean
  800c88:	e0fff417 	ldw	r3,-48(fp)
  800c8c:	e0bffc17 	ldw	r2,-16(fp)
  800c90:	10803417 	ldw	r2,208(r2)
  800c94:	100b883a 	mov	r5,r2
  800c98:	1809883a 	mov	r4,r3
  800c9c:	08023500 	call	802350 <__udivsi3>
  800ca0:	e0bff715 	stw	r2,-36(fp)
	    alt_32 offs = 25 - (alt_32)(mean/normalization);  //Calculate offset so that graph stays in the middle
  800ca4:	e17fff17 	ldw	r5,-4(fp)
  800ca8:	e13ff717 	ldw	r4,-36(fp)
  800cac:	08022580 	call	802258 <__divsi3>
  800cb0:	1007883a 	mov	r3,r2
  800cb4:	00800644 	movi	r2,25
  800cb8:	10c5c83a 	sub	r2,r2,r3
  800cbc:	e0bff915 	stw	r2,-28(fp)
	    sensor_obj_ptr->offset = offs;    //update offset member variable
  800cc0:	e0fff917 	ldw	r3,-28(fp)
  800cc4:	e0800417 	ldw	r2,16(fp)
  800cc8:	10c00915 	stw	r3,36(r2)

	    //Print the last value as a number on screen so that ones sees the instantaneous measurement
	    	        alt_32  bcd = i2bcd(abs(q->items[0]));
  800ccc:	e0bffc17 	ldw	r2,-16(fp)
  800cd0:	10800017 	ldw	r2,0(r2)
  800cd4:	1000010e 	bge	r2,zero,800cdc <queue_print_screen+0x1d0>
  800cd8:	0085c83a 	sub	r2,zero,r2
  800cdc:	1009883a 	mov	r4,r2
  800ce0:	08012f40 	call	8012f4 <i2bcd>
  800ce4:	e0bffa15 	stw	r2,-24(fp)
	    	        if(q->items[0] & 0x80000000)//negative
  800ce8:	e0bffc17 	ldw	r2,-16(fp)
  800cec:	10800017 	ldw	r2,0(r2)
  800cf0:	10000b0e 	bge	r2,zero,800d20 <queue_print_screen+0x214>
	    	        	print_char(x_origo +24, y_origo+30,4,0,'-');
  800cf4:	e0bffd17 	ldw	r2,-12(fp)
  800cf8:	10c00604 	addi	r3,r2,24
  800cfc:	e0bffe17 	ldw	r2,-8(fp)
  800d00:	11000784 	addi	r4,r2,30
  800d04:	00800b44 	movi	r2,45
  800d08:	d8800015 	stw	r2,0(sp)
  800d0c:	000f883a 	mov	r7,zero
  800d10:	01800104 	movi	r6,4
  800d14:	200b883a 	mov	r5,r4
  800d18:	1809883a 	mov	r4,r3
  800d1c:	0801bd00 	call	801bd0 <print_char>

	    	        	char c = (char)((bcd & 0xF000) >>12);
  800d20:	e0bffa17 	ldw	r2,-24(fp)
  800d24:	10bc000c 	andi	r2,r2,61440
  800d28:	1005d33a 	srai	r2,r2,12
  800d2c:	e0bffb05 	stb	r2,-20(fp)
	    	        	short s = (short) c +48;
  800d30:	e0bffb07 	ldb	r2,-20(fp)
  800d34:	10800c04 	addi	r2,r2,48
  800d38:	e0bffb8d 	sth	r2,-18(fp)
	    	        	print_char(x_origo +30, y_origo+30,4,0,(char)s);
  800d3c:	e0bffd17 	ldw	r2,-12(fp)
  800d40:	10c00784 	addi	r3,r2,30
  800d44:	e0bffe17 	ldw	r2,-8(fp)
  800d48:	11000784 	addi	r4,r2,30
  800d4c:	e0bffb8b 	ldhu	r2,-18(fp)
  800d50:	10803fcc 	andi	r2,r2,255
  800d54:	1080201c 	xori	r2,r2,128
  800d58:	10bfe004 	addi	r2,r2,-128
  800d5c:	d8800015 	stw	r2,0(sp)
  800d60:	000f883a 	mov	r7,zero
  800d64:	01800104 	movi	r6,4
  800d68:	200b883a 	mov	r5,r4
  800d6c:	1809883a 	mov	r4,r3
  800d70:	0801bd00 	call	801bd0 <print_char>

	    	        	c = (char)((bcd & 0x0F00) >>8);
  800d74:	e0bffa17 	ldw	r2,-24(fp)
  800d78:	1083c00c 	andi	r2,r2,3840
  800d7c:	1005d23a 	srai	r2,r2,8
  800d80:	e0bffb05 	stb	r2,-20(fp)
	    	        	s = (short) c +48;
  800d84:	e0bffb07 	ldb	r2,-20(fp)
  800d88:	10800c04 	addi	r2,r2,48
  800d8c:	e0bffb8d 	sth	r2,-18(fp)
	    	        	print_char(x_origo +38, y_origo+30,4,0,(char)s);
  800d90:	e0bffd17 	ldw	r2,-12(fp)
  800d94:	10c00984 	addi	r3,r2,38
  800d98:	e0bffe17 	ldw	r2,-8(fp)
  800d9c:	11000784 	addi	r4,r2,30
  800da0:	e0bffb8b 	ldhu	r2,-18(fp)
  800da4:	10803fcc 	andi	r2,r2,255
  800da8:	1080201c 	xori	r2,r2,128
  800dac:	10bfe004 	addi	r2,r2,-128
  800db0:	d8800015 	stw	r2,0(sp)
  800db4:	000f883a 	mov	r7,zero
  800db8:	01800104 	movi	r6,4
  800dbc:	200b883a 	mov	r5,r4
  800dc0:	1809883a 	mov	r4,r3
  800dc4:	0801bd00 	call	801bd0 <print_char>

	    	        	c = (char)((bcd & 0x0F0) >>4);
  800dc8:	e0bffa17 	ldw	r2,-24(fp)
  800dcc:	10803c0c 	andi	r2,r2,240
  800dd0:	1005d13a 	srai	r2,r2,4
  800dd4:	e0bffb05 	stb	r2,-20(fp)
	    	        	s = (short) c +48;
  800dd8:	e0bffb07 	ldb	r2,-20(fp)
  800ddc:	10800c04 	addi	r2,r2,48
  800de0:	e0bffb8d 	sth	r2,-18(fp)
	    	        	print_char(x_origo +46, y_origo+30,4,0,(char)s);
  800de4:	e0bffd17 	ldw	r2,-12(fp)
  800de8:	10c00b84 	addi	r3,r2,46
  800dec:	e0bffe17 	ldw	r2,-8(fp)
  800df0:	11000784 	addi	r4,r2,30
  800df4:	e0bffb8b 	ldhu	r2,-18(fp)
  800df8:	10803fcc 	andi	r2,r2,255
  800dfc:	1080201c 	xori	r2,r2,128
  800e00:	10bfe004 	addi	r2,r2,-128
  800e04:	d8800015 	stw	r2,0(sp)
  800e08:	000f883a 	mov	r7,zero
  800e0c:	01800104 	movi	r6,4
  800e10:	200b883a 	mov	r5,r4
  800e14:	1809883a 	mov	r4,r3
  800e18:	0801bd00 	call	801bd0 <print_char>

	    	        	c = (char)(bcd & 0x0F);
  800e1c:	e0bffa17 	ldw	r2,-24(fp)
  800e20:	108003cc 	andi	r2,r2,15
  800e24:	e0bffb05 	stb	r2,-20(fp)
	    	        	s = (short) c +48;
  800e28:	e0bffb07 	ldb	r2,-20(fp)
  800e2c:	10800c04 	addi	r2,r2,48
  800e30:	e0bffb8d 	sth	r2,-18(fp)
	    	        	print_char(x_origo +54, y_origo+30,4,0,(char)s);
  800e34:	e0bffd17 	ldw	r2,-12(fp)
  800e38:	10c00d84 	addi	r3,r2,54
  800e3c:	e0bffe17 	ldw	r2,-8(fp)
  800e40:	11000784 	addi	r4,r2,30
  800e44:	e0bffb8b 	ldhu	r2,-18(fp)
  800e48:	10803fcc 	andi	r2,r2,255
  800e4c:	1080201c 	xori	r2,r2,128
  800e50:	10bfe004 	addi	r2,r2,-128
  800e54:	d8800015 	stw	r2,0(sp)
  800e58:	000f883a 	mov	r7,zero
  800e5c:	01800104 	movi	r6,4
  800e60:	200b883a 	mov	r5,r4
  800e64:	1809883a 	mov	r4,r3
  800e68:	0801bd00 	call	801bd0 <print_char>
}
  800e6c:	0001883a 	nop
  800e70:	e037883a 	mov	sp,fp
  800e74:	dfc00117 	ldw	ra,4(sp)
  800e78:	df000017 	ldw	fp,0(sp)
  800e7c:	dec00204 	addi	sp,sp,8
  800e80:	f800283a 	ret

00800e84 <read_temp>:



void read_temp(QUEUE *q){
  800e84:	defffc04 	addi	sp,sp,-16
  800e88:	dfc00315 	stw	ra,12(sp)
  800e8c:	df000215 	stw	fp,8(sp)
  800e90:	df000204 	addi	fp,sp,8
  800e94:	e13fff15 	stw	r4,-4(fp)
	ADC_INIT;
  800e98:	00c00044 	movi	r3,1
  800e9c:	00804234 	movhi	r2,264
  800ea0:	10849c04 	addi	r2,r2,4720
  800ea4:	10c00035 	stwio	r3,0(r2)
		alt_u32 temp = ADC_READ_TEMP;
  800ea8:	00804234 	movhi	r2,264
  800eac:	10840104 	addi	r2,r2,4100
  800eb0:	10800037 	ldwio	r2,0(r2)
  800eb4:	e0bffe15 	stw	r2,-8(fp)
		if(queue_enqueue(q,temp))// If I can enqueue the measurement
  800eb8:	e0bffe17 	ldw	r2,-8(fp)
  800ebc:	100b883a 	mov	r5,r2
  800ec0:	e13fff17 	ldw	r4,-4(fp)
  800ec4:	08008c80 	call	8008c8 <queue_enqueue>
  800ec8:	10000226 	beq	r2,zero,800ed4 <read_temp+0x50>
			do_nothing();	//then do nothing
  800ecc:	08012d40 	call	8012d4 <do_nothing>
						}
		//alt_printf("nu");
#ifdef DEBUG
		 queue_print(q);
#endif
}
  800ed0:	00000606 	br	800eec <read_temp+0x68>
	ADC_INIT;
		alt_u32 temp = ADC_READ_TEMP;
		if(queue_enqueue(q,temp))// If I can enqueue the measurement
			do_nothing();	//then do nothing
						else{
							queue_dequeue(q);// else throw the oldest measurement point
  800ed4:	e13fff17 	ldw	r4,-4(fp)
  800ed8:	0800a540 	call	800a54 <queue_dequeue>
							queue_enqueue(q,temp);//and then enqueue the newest
  800edc:	e0bffe17 	ldw	r2,-8(fp)
  800ee0:	100b883a 	mov	r5,r2
  800ee4:	e13fff17 	ldw	r4,-4(fp)
  800ee8:	08008c80 	call	8008c8 <queue_enqueue>
						}
		//alt_printf("nu");
#ifdef DEBUG
		 queue_print(q);
#endif
}
  800eec:	0001883a 	nop
  800ef0:	e037883a 	mov	sp,fp
  800ef4:	dfc00117 	ldw	ra,4(sp)
  800ef8:	df000017 	ldw	fp,0(sp)
  800efc:	dec00204 	addi	sp,sp,8
  800f00:	f800283a 	ret

00800f04 <read_light>:
void read_light(QUEUE *q){
  800f04:	defffc04 	addi	sp,sp,-16
  800f08:	dfc00315 	stw	ra,12(sp)
  800f0c:	df000215 	stw	fp,8(sp)
  800f10:	df000204 	addi	fp,sp,8
  800f14:	e13fff15 	stw	r4,-4(fp)
	ADC_INIT;
  800f18:	00c00044 	movi	r3,1
  800f1c:	00804234 	movhi	r2,264
  800f20:	10849c04 	addi	r2,r2,4720
  800f24:	10c00035 	stwio	r3,0(r2)
			alt_u32 light = ADC_READ_PHOTO;
  800f28:	00804234 	movhi	r2,264
  800f2c:	10840004 	addi	r2,r2,4096
  800f30:	10800037 	ldwio	r2,0(r2)
  800f34:	e0bffe15 	stw	r2,-8(fp)
			if(queue_enqueue(q,light)) //If I can queue...
  800f38:	e0bffe17 	ldw	r2,-8(fp)
  800f3c:	100b883a 	mov	r5,r2
  800f40:	e13fff17 	ldw	r4,-4(fp)
  800f44:	08008c80 	call	8008c8 <queue_enqueue>
  800f48:	10000226 	beq	r2,zero,800f54 <read_light+0x50>
				do_nothing();		//then Do nothing
  800f4c:	08012d40 	call	8012d4 <do_nothing>
			//alt_printf("printar nu");
								}
#ifdef DEBUG
		 queue_print(q);
#endif
}
  800f50:	00000606 	br	800f6c <read_light+0x68>
	ADC_INIT;
			alt_u32 light = ADC_READ_PHOTO;
			if(queue_enqueue(q,light)) //If I can queue...
				do_nothing();		//then Do nothing
							else{
								queue_dequeue(q); //else dequeue
  800f54:	e13fff17 	ldw	r4,-4(fp)
  800f58:	0800a540 	call	800a54 <queue_dequeue>
								queue_enqueue(q,light); //and then enqueue
  800f5c:	e0bffe17 	ldw	r2,-8(fp)
  800f60:	100b883a 	mov	r5,r2
  800f64:	e13fff17 	ldw	r4,-4(fp)
  800f68:	08008c80 	call	8008c8 <queue_enqueue>
			//alt_printf("printar nu");
								}
#ifdef DEBUG
		 queue_print(q);
#endif
}
  800f6c:	0001883a 	nop
  800f70:	e037883a 	mov	sp,fp
  800f74:	dfc00117 	ldw	ra,4(sp)
  800f78:	df000017 	ldw	fp,0(sp)
  800f7c:	dec00204 	addi	sp,sp,8
  800f80:	f800283a 	ret

00800f84 <config_time_base>:
/************************************************/
void config_time_base(alt_u32 time_base, SENSOR_OBJECT* sensor_obj_ptr){
  800f84:	defffd04 	addi	sp,sp,-12
  800f88:	df000215 	stw	fp,8(sp)
  800f8c:	df000204 	addi	fp,sp,8
  800f90:	e13ffe15 	stw	r4,-8(fp)
  800f94:	e17fff15 	stw	r5,-4(fp)
	 sensor_obj_ptr->time_base = time_base;
  800f98:	e0bfff17 	ldw	r2,-4(fp)
  800f9c:	e0fffe17 	ldw	r3,-8(fp)
  800fa0:	10c00715 	stw	r3,28(r2)
}
  800fa4:	0001883a 	nop
  800fa8:	e037883a 	mov	sp,fp
  800fac:	df000017 	ldw	fp,0(sp)
  800fb0:	dec00104 	addi	sp,sp,4
  800fb4:	f800283a 	ret

00800fb8 <init_measurement>:
void init_measurement(SENSOR_OBJECT* sensor_obj_ptr){
  800fb8:	defffd04 	addi	sp,sp,-12
  800fbc:	dfc00215 	stw	ra,8(sp)
  800fc0:	df000115 	stw	fp,4(sp)
  800fc4:	df000104 	addi	fp,sp,4
  800fc8:	e13fff15 	stw	r4,-4(fp)
	queue_init(sensor_obj_ptr->q); //Zeroing the queue
  800fcc:	e0bfff17 	ldw	r2,-4(fp)
  800fd0:	10804017 	ldw	r2,256(r2)
  800fd4:	1009883a 	mov	r4,r2
  800fd8:	080083c0 	call	80083c <queue_init>
	sensor_obj_ptr->draw_graph_axes(sensor_obj_ptr); //Draw graph axes
  800fdc:	e0bfff17 	ldw	r2,-4(fp)
  800fe0:	10804517 	ldw	r2,276(r2)
  800fe4:	e13fff17 	ldw	r4,-4(fp)
  800fe8:	103ee83a 	callr	r2
}
  800fec:	0001883a 	nop
  800ff0:	e037883a 	mov	sp,fp
  800ff4:	dfc00117 	ldw	ra,4(sp)
  800ff8:	df000017 	ldw	fp,0(sp)
  800ffc:	dec00204 	addi	sp,sp,8
  801000:	f800283a 	ret

00801004 <draw_graph>:

void draw_graph(const SENSOR_OBJECT* sensor_obj_ptr){
  801004:	defffc04 	addi	sp,sp,-16
  801008:	dfc00315 	stw	ra,12(sp)
  80100c:	df000215 	stw	fp,8(sp)
  801010:	df000204 	addi	fp,sp,8
  801014:	e13fff15 	stw	r4,-4(fp)
	//Draws the graph axes and prints the sensor description
	print_char(sensor_obj_ptr->x_origo +55,sensor_obj_ptr->y_origo -3,7,0,'>');
  801018:	e0bfff17 	ldw	r2,-4(fp)
  80101c:	10800517 	ldw	r2,20(r2)
  801020:	10c00dc4 	addi	r3,r2,55
  801024:	e0bfff17 	ldw	r2,-4(fp)
  801028:	10800617 	ldw	r2,24(r2)
  80102c:	113fff44 	addi	r4,r2,-3
  801030:	00800f84 	movi	r2,62
  801034:	d8800015 	stw	r2,0(sp)
  801038:	000f883a 	mov	r7,zero
  80103c:	018001c4 	movi	r6,7
  801040:	200b883a 	mov	r5,r4
  801044:	1809883a 	mov	r4,r3
  801048:	0801bd00 	call	801bd0 <print_char>
		print_hline(sensor_obj_ptr->x_origo,sensor_obj_ptr->y_origo,60,7);
  80104c:	e0bfff17 	ldw	r2,-4(fp)
  801050:	10c00517 	ldw	r3,20(r2)
  801054:	e0bfff17 	ldw	r2,-4(fp)
  801058:	10800617 	ldw	r2,24(r2)
  80105c:	01c001c4 	movi	r7,7
  801060:	01800f04 	movi	r6,60
  801064:	100b883a 	mov	r5,r2
  801068:	1809883a 	mov	r4,r3
  80106c:	0801a300 	call	801a30 <print_hline>

		print_char(sensor_obj_ptr->x_origo -4,sensor_obj_ptr->y_origo -45,7,0,'^');
  801070:	e0bfff17 	ldw	r2,-4(fp)
  801074:	10800517 	ldw	r2,20(r2)
  801078:	10ffff04 	addi	r3,r2,-4
  80107c:	e0bfff17 	ldw	r2,-4(fp)
  801080:	10800617 	ldw	r2,24(r2)
  801084:	113ff4c4 	addi	r4,r2,-45
  801088:	00801784 	movi	r2,94
  80108c:	d8800015 	stw	r2,0(sp)
  801090:	000f883a 	mov	r7,zero
  801094:	018001c4 	movi	r6,7
  801098:	200b883a 	mov	r5,r4
  80109c:	1809883a 	mov	r4,r3
  8010a0:	0801bd00 	call	801bd0 <print_char>
		print_vline(sensor_obj_ptr->x_origo-1,sensor_obj_ptr->y_origo -45,45,7);
  8010a4:	e0bfff17 	ldw	r2,-4(fp)
  8010a8:	10800517 	ldw	r2,20(r2)
  8010ac:	10ffffc4 	addi	r3,r2,-1
  8010b0:	e0bfff17 	ldw	r2,-4(fp)
  8010b4:	10800617 	ldw	r2,24(r2)
  8010b8:	10bff4c4 	addi	r2,r2,-45
  8010bc:	01c001c4 	movi	r7,7
  8010c0:	01800b44 	movi	r6,45
  8010c4:	100b883a 	mov	r5,r2
  8010c8:	1809883a 	mov	r4,r3
  8010cc:	0801b000 	call	801b00 <print_vline>

		print_str(sensor_obj_ptr->x_origo -20, sensor_obj_ptr->y_origo +10,7,sensor_obj_ptr->description);
  8010d0:	e0bfff17 	ldw	r2,-4(fp)
  8010d4:	10800517 	ldw	r2,20(r2)
  8010d8:	10fffb04 	addi	r3,r2,-20
  8010dc:	e0bfff17 	ldw	r2,-4(fp)
  8010e0:	10800617 	ldw	r2,24(r2)
  8010e4:	10800284 	addi	r2,r2,10
  8010e8:	e13fff17 	ldw	r4,-4(fp)
  8010ec:	200f883a 	mov	r7,r4
  8010f0:	018001c4 	movi	r6,7
  8010f4:	100b883a 	mov	r5,r2
  8010f8:	1809883a 	mov	r4,r3
  8010fc:	0801d000 	call	801d00 <print_str>
}
  801100:	0001883a 	nop
  801104:	e037883a 	mov	sp,fp
  801108:	dfc00117 	ldw	ra,4(sp)
  80110c:	df000017 	ldw	fp,0(sp)
  801110:	dec00204 	addi	sp,sp,8
  801114:	f800283a 	ret

00801118 <update_graph>:

void update_graph( SENSOR_OBJECT* sensor_obj_ptr){
  801118:	defff704 	addi	sp,sp,-36
  80111c:	dfc00815 	stw	ra,32(sp)
  801120:	df000715 	stw	fp,28(sp)
  801124:	dc800615 	stw	r18,24(sp)
  801128:	dc400515 	stw	r17,20(sp)
  80112c:	dc000415 	stw	r16,16(sp)
  801130:	df000704 	addi	fp,sp,28
  801134:	e13ffc15 	stw	r4,-16(fp)
#ifdef DEBUG
	queue_print(sensor_obj->q);
#endif
	queue_print_screen(sensor_obj_ptr->q,
  801138:	e0bffc17 	ldw	r2,-16(fp)
  80113c:	14004017 	ldw	r16,256(r2)
  801140:	e0bffc17 	ldw	r2,-16(fp)
  801144:	14400517 	ldw	r17,20(r2)
  801148:	e0bffc17 	ldw	r2,-16(fp)
  80114c:	14800617 	ldw	r18,24(r2)
			sensor_obj_ptr->x_origo,
			sensor_obj_ptr->y_origo,
			sensor_obj_ptr->normalization_factor,
  801150:	e0bffc17 	ldw	r2,-16(fp)
  801154:	10c00817 	ldw	r3,32(r2)

void update_graph( SENSOR_OBJECT* sensor_obj_ptr){
#ifdef DEBUG
	queue_print(sensor_obj->q);
#endif
	queue_print_screen(sensor_obj_ptr->q,
  801158:	1809883a 	mov	r4,r3
  80115c:	08024340 	call	802434 <__fixsfsi>
  801160:	100b883a 	mov	r5,r2
			sensor_obj_ptr->x_origo,
			sensor_obj_ptr->y_origo,
			sensor_obj_ptr->normalization_factor,
			sensor_obj_ptr->offset,
  801164:	e0bffc17 	ldw	r2,-16(fp)
  801168:	10800917 	ldw	r2,36(r2)

void update_graph( SENSOR_OBJECT* sensor_obj_ptr){
#ifdef DEBUG
	queue_print(sensor_obj->q);
#endif
	queue_print_screen(sensor_obj_ptr->q,
  80116c:	1009883a 	mov	r4,r2
  801170:	e0bffc17 	ldw	r2,-16(fp)
  801174:	10800a17 	ldw	r2,40(r2)
  801178:	e0fffc17 	ldw	r3,-16(fp)
  80117c:	d8c00215 	stw	r3,8(sp)
  801180:	d8800115 	stw	r2,4(sp)
  801184:	d9000015 	stw	r4,0(sp)
  801188:	280f883a 	mov	r7,r5
  80118c:	900d883a 	mov	r6,r18
  801190:	880b883a 	mov	r5,r17
  801194:	8009883a 	mov	r4,r16
  801198:	0800b0c0 	call	800b0c <queue_print_screen>
			sensor_obj_ptr->x_origo,
			sensor_obj_ptr->y_origo,
			sensor_obj_ptr->normalization_factor,
			sensor_obj_ptr->offset,
			sensor_obj_ptr->rgb,sensor_obj_ptr );
}
  80119c:	0001883a 	nop
  8011a0:	e6fffd04 	addi	sp,fp,-12
  8011a4:	dfc00417 	ldw	ra,16(sp)
  8011a8:	df000317 	ldw	fp,12(sp)
  8011ac:	dc800217 	ldw	r18,8(sp)
  8011b0:	dc400117 	ldw	r17,4(sp)
  8011b4:	dc000017 	ldw	r16,0(sp)
  8011b8:	dec00504 	addi	sp,sp,20
  8011bc:	f800283a 	ret

008011c0 <read_accelerometerX>:
void read_accelerometerX(QUEUE *q)
{
  8011c0:	defff604 	addi	sp,sp,-40
  8011c4:	dfc00915 	stw	ra,36(sp)
  8011c8:	df000815 	stw	fp,32(sp)
  8011cc:	df000804 	addi	fp,sp,32
  8011d0:	e13fff15 	stw	r4,-4(fp)
	ACCELEROMETER accel_data;
	alt_u8 spi_command_tx[2] = {0x0B, 0x00}; //, 0x00, 0x00}; // read one register from address 0x00
  8011d4:	008002c4 	movi	r2,11
  8011d8:	e0bffcc5 	stb	r2,-13(fp)
  8011dc:	e03ffd05 	stb	zero,-12(fp)
	alt_u8 spi_command_rx[4] = {0xB,0,0,0};
  8011e0:	008002c4 	movi	r2,11
  8011e4:	e0bffd45 	stb	r2,-11(fp)
  8011e8:	e03ffd85 	stb	zero,-10(fp)
  8011ec:	e03ffdc5 	stb	zero,-9(fp)
  8011f0:	e03ffe05 	stb	zero,-8(fp)
	// ------------------------------------------ Init SPI
		spi_command_tx[0] = WRITE_COMMAND; // write command
  8011f4:	00800284 	movi	r2,10
  8011f8:	e0bffcc5 	stb	r2,-13(fp)
		spi_command_tx[1] = 0x2D; // Address 0x2D (go bit location)
  8011fc:	00800b44 	movi	r2,45
  801200:	e0bffd05 	stb	r2,-12(fp)
		spi_command_tx[2] = 0x02; // go bit value
  801204:	00800084 	movi	r2,2
  801208:	e0bffd45 	stb	r2,-11(fp)

		alt_avalon_spi_command( ACCELEROMETER_SPI_BASE, 0,
  80120c:	e0fffcc4 	addi	r3,fp,-13
  801210:	d8000215 	stw	zero,8(sp)
  801214:	e0bffd44 	addi	r2,fp,-11
  801218:	d8800115 	stw	r2,4(sp)
  80121c:	d8000015 	stw	zero,0(sp)
  801220:	180f883a 	mov	r7,r3
  801224:	018000c4 	movi	r6,3
  801228:	000b883a 	mov	r5,zero
  80122c:	01004234 	movhi	r4,264
  801230:	21048004 	addi	r4,r4,4608
  801234:	08027400 	call	802740 <alt_avalon_spi_command>
							  3, spi_command_tx,
							  0, spi_command_rx,
							  0);
	// ------------------------------------------ Read SPI
		spi_command_tx[0] = READ_COMMAND; // read command
  801238:	008002c4 	movi	r2,11
  80123c:	e0bffcc5 	stb	r2,-13(fp)
		spi_command_tx[1] = 0x08; // Address of the data registers
  801240:	00800204 	movi	r2,8
  801244:	e0bffd05 	stb	r2,-12(fp)


			alt_avalon_spi_command( ACCELEROMETER_SPI_BASE, 0,
  801248:	e0fffcc4 	addi	r3,fp,-13
  80124c:	d8000215 	stw	zero,8(sp)
  801250:	e0bffc04 	addi	r2,fp,-16
  801254:	d8800115 	stw	r2,4(sp)
  801258:	008000c4 	movi	r2,3
  80125c:	d8800015 	stw	r2,0(sp)
  801260:	180f883a 	mov	r7,r3
  801264:	01800084 	movi	r6,2
  801268:	000b883a 	mov	r5,zero
  80126c:	01004234 	movhi	r4,264
  801270:	21048004 	addi	r4,r4,4608
  801274:	08027400 	call	802740 <alt_avalon_spi_command>
								  0);
#ifdef DEBUG
			alt_printf("X:%d\t Y:%d\t Z:%d\t\n",accel_data.x, accel_data.y, accel_data.z);
#endif

		alt_32 accel_x = 0;
  801278:	e03ffb15 	stw	zero,-20(fp)
		accel_x = (alt_32)accel_data.x;
  80127c:	e0bffc03 	ldbu	r2,-16(fp)
  801280:	10803fcc 	andi	r2,r2,255
  801284:	1080201c 	xori	r2,r2,128
  801288:	10bfe004 	addi	r2,r2,-128
  80128c:	e0bffb15 	stw	r2,-20(fp)

		if(queue_enqueue(q,accel_x))// If I can queue
  801290:	e17ffb17 	ldw	r5,-20(fp)
  801294:	e13fff17 	ldw	r4,-4(fp)
  801298:	08008c80 	call	8008c8 <queue_enqueue>
  80129c:	10000226 	beq	r2,zero,8012a8 <read_accelerometerX+0xe8>
			do_nothing();									//then do nothing
  8012a0:	08012d40 	call	8012d4 <do_nothing>
				else{
					queue_dequeue(q); //dequeue the oldest element
					queue_enqueue(q,accel_x);//and then enqueue
				}
}
  8012a4:	00000506 	br	8012bc <read_accelerometerX+0xfc>
		accel_x = (alt_32)accel_data.x;

		if(queue_enqueue(q,accel_x))// If I can queue
			do_nothing();									//then do nothing
				else{
					queue_dequeue(q); //dequeue the oldest element
  8012a8:	e13fff17 	ldw	r4,-4(fp)
  8012ac:	0800a540 	call	800a54 <queue_dequeue>
					queue_enqueue(q,accel_x);//and then enqueue
  8012b0:	e17ffb17 	ldw	r5,-20(fp)
  8012b4:	e13fff17 	ldw	r4,-4(fp)
  8012b8:	08008c80 	call	8008c8 <queue_enqueue>
				}
}
  8012bc:	0001883a 	nop
  8012c0:	e037883a 	mov	sp,fp
  8012c4:	dfc00117 	ldw	ra,4(sp)
  8012c8:	df000017 	ldw	fp,0(sp)
  8012cc:	dec00204 	addi	sp,sp,8
  8012d0:	f800283a 	ret

008012d4 <do_nothing>:
void do_nothing(void){
  8012d4:	deffff04 	addi	sp,sp,-4
  8012d8:	df000015 	stw	fp,0(sp)
  8012dc:	d839883a 	mov	fp,sp

}
  8012e0:	0001883a 	nop
  8012e4:	e037883a 	mov	sp,fp
  8012e8:	df000017 	ldw	fp,0(sp)
  8012ec:	dec00104 	addi	sp,sp,4
  8012f0:	f800283a 	ret

008012f4 <i2bcd>:
// *      Author: root
// */
#include <alt_types.h>
#include "vga_util.h"

unsigned int i2bcd(unsigned int i) {
  8012f4:	defffa04 	addi	sp,sp,-24
  8012f8:	dfc00515 	stw	ra,20(sp)
  8012fc:	df000415 	stw	fp,16(sp)
  801300:	df000404 	addi	fp,sp,16
  801304:	e13fff15 	stw	r4,-4(fp)
	//Integer to bcd
	//Found algoritm online on discussioforum. Didn't work, had to rework it with some trials.
    unsigned int binaryShift = 1;
  801308:	00800044 	movi	r2,1
  80130c:	e0bffc15 	stw	r2,-16(fp)
    unsigned int digit;
    unsigned int bcd = 0;
  801310:	e03ffd15 	stw	zero,-12(fp)
    //alt_printf("%d\n",i);
    while (i > 0) {
  801314:	00001306 	br	801364 <i2bcd+0x70>
        digit = i % 10;
  801318:	e0bfff17 	ldw	r2,-4(fp)
  80131c:	01400284 	movi	r5,10
  801320:	1009883a 	mov	r4,r2
  801324:	08023b40 	call	8023b4 <__umodsi3>
  801328:	e0bffe15 	stw	r2,-8(fp)
        bcd += (digit << binaryShift);
  80132c:	e0fffe17 	ldw	r3,-8(fp)
  801330:	e0bffc17 	ldw	r2,-16(fp)
  801334:	1884983a 	sll	r2,r3,r2
  801338:	e0fffd17 	ldw	r3,-12(fp)
  80133c:	1885883a 	add	r2,r3,r2
  801340:	e0bffd15 	stw	r2,-12(fp)
        binaryShift += 4;
  801344:	e0bffc17 	ldw	r2,-16(fp)
  801348:	10800104 	addi	r2,r2,4
  80134c:	e0bffc15 	stw	r2,-16(fp)
        i /= 10;
  801350:	e0bfff17 	ldw	r2,-4(fp)
  801354:	01400284 	movi	r5,10
  801358:	1009883a 	mov	r4,r2
  80135c:	08023500 	call	802350 <__udivsi3>
  801360:	e0bfff15 	stw	r2,-4(fp)
	//Found algoritm online on discussioforum. Didn't work, had to rework it with some trials.
    unsigned int binaryShift = 1;
    unsigned int digit;
    unsigned int bcd = 0;
    //alt_printf("%d\n",i);
    while (i > 0) {
  801364:	e0bfff17 	ldw	r2,-4(fp)
  801368:	103feb1e 	bne	r2,zero,801318 <__alt_data_end+0xff801318>
        digit = i % 10;
        bcd += (digit << binaryShift);
        binaryShift += 4;
        i /= 10;
    }
    bcd = bcd >> 1; //Added this
  80136c:	e0bffd17 	ldw	r2,-12(fp)
  801370:	1004d07a 	srli	r2,r2,1
  801374:	e0bffd15 	stw	r2,-12(fp)
            n++;
        }
    putchar('\n');
#endif

    return bcd;
  801378:	e0bffd17 	ldw	r2,-12(fp)
}
  80137c:	e037883a 	mov	sp,fp
  801380:	dfc00117 	ldw	ra,4(sp)
  801384:	df000017 	ldw	fp,0(sp)
  801388:	dec00204 	addi	sp,sp,8
  80138c:	f800283a 	ret

00801390 <update_time>:


void update_time(unsigned int i){
  801390:	defffa04 	addi	sp,sp,-24
  801394:	dfc00515 	stw	ra,20(sp)
  801398:	df000415 	stw	fp,16(sp)
  80139c:	df000404 	addi	fp,sp,16
  8013a0:	e13fff15 	stw	r4,-4(fp)

	static int hours = 0;
	static int minutes = 0;
	static int seconds = 0;
	//static int sub_seconds = 0;
	unsigned int bcd = 0;
  8013a4:	e03ffd15 	stw	zero,-12(fp)
	//unsigned int time[3]={hours, minutes,seconds};


		seconds++;
  8013a8:	d0a0d217 	ldw	r2,-31928(gp)
  8013ac:	10800044 	addi	r2,r2,1
  8013b0:	d0a0d215 	stw	r2,-31928(gp)


	if(seconds == 60)
  8013b4:	d0a0d217 	ldw	r2,-31928(gp)
  8013b8:	10800f18 	cmpnei	r2,r2,60
  8013bc:	10000b1e 	bne	r2,zero,8013ec <update_time+0x5c>
	{
		seconds = 0;
  8013c0:	d020d215 	stw	zero,-31928(gp)
		minutes++;
  8013c4:	d0a0d317 	ldw	r2,-31924(gp)
  8013c8:	10800044 	addi	r2,r2,1
  8013cc:	d0a0d315 	stw	r2,-31924(gp)
		if (minutes == 60)
  8013d0:	d0a0d317 	ldw	r2,-31924(gp)
  8013d4:	10800f18 	cmpnei	r2,r2,60
  8013d8:	1000041e 	bne	r2,zero,8013ec <update_time+0x5c>
		{
			minutes = 0;
  8013dc:	d020d315 	stw	zero,-31924(gp)
			hours++;
  8013e0:	d0a0d417 	ldw	r2,-31920(gp)
  8013e4:	10800044 	addi	r2,r2,1
  8013e8:	d0a0d415 	stw	r2,-31920(gp)
		}
	}

	char c;
	short s;
	bcd = i2bcd(hours);   							//Hours
  8013ec:	d0a0d417 	ldw	r2,-31920(gp)
  8013f0:	1009883a 	mov	r4,r2
  8013f4:	08012f40 	call	8012f4 <i2bcd>
  8013f8:	e0bffd15 	stw	r2,-12(fp)
	c = (char)((bcd & 0x0F0) >>4);
  8013fc:	e0bffd17 	ldw	r2,-12(fp)
  801400:	10803c0c 	andi	r2,r2,240
  801404:	1004d13a 	srli	r2,r2,4
  801408:	e0bffe05 	stb	r2,-8(fp)
	s = (short) c +48;
  80140c:	e0bffe07 	ldb	r2,-8(fp)
  801410:	10800c04 	addi	r2,r2,48
  801414:	e0bffe8d 	sth	r2,-6(fp)
	print_char(2*320/3-50 +30 +46, 130,4,0,(char)s);
  801418:	e0bffe8b 	ldhu	r2,-6(fp)
  80141c:	10803fcc 	andi	r2,r2,255
  801420:	1080201c 	xori	r2,r2,128
  801424:	10bfe004 	addi	r2,r2,-128
  801428:	d8800015 	stw	r2,0(sp)
  80142c:	000f883a 	mov	r7,zero
  801430:	01800104 	movi	r6,4
  801434:	01402084 	movi	r5,130
  801438:	01003bc4 	movi	r4,239
  80143c:	0801bd00 	call	801bd0 <print_char>

	c = (char)(bcd & 0x0F);
  801440:	e0bffd17 	ldw	r2,-12(fp)
  801444:	108003cc 	andi	r2,r2,15
  801448:	e0bffe05 	stb	r2,-8(fp)
	s = (short) c +48;
  80144c:	e0bffe07 	ldb	r2,-8(fp)
  801450:	10800c04 	addi	r2,r2,48
  801454:	e0bffe8d 	sth	r2,-6(fp)
	print_char(2*320/3 -50+30 +54,130,4,0,(char)s);
  801458:	e0bffe8b 	ldhu	r2,-6(fp)
  80145c:	10803fcc 	andi	r2,r2,255
  801460:	1080201c 	xori	r2,r2,128
  801464:	10bfe004 	addi	r2,r2,-128
  801468:	d8800015 	stw	r2,0(sp)
  80146c:	000f883a 	mov	r7,zero
  801470:	01800104 	movi	r6,4
  801474:	01402084 	movi	r5,130
  801478:	01003dc4 	movi	r4,247
  80147c:	0801bd00 	call	801bd0 <print_char>

	print_char(2*320/3-50 +30 +54+8,130,4,0,':'); 	// :
  801480:	00800e84 	movi	r2,58
  801484:	d8800015 	stw	r2,0(sp)
  801488:	000f883a 	mov	r7,zero
  80148c:	01800104 	movi	r6,4
  801490:	01402084 	movi	r5,130
  801494:	01003fc4 	movi	r4,255
  801498:	0801bd00 	call	801bd0 <print_char>

	bcd = i2bcd(minutes);							//Minutes
  80149c:	d0a0d317 	ldw	r2,-31924(gp)
  8014a0:	1009883a 	mov	r4,r2
  8014a4:	08012f40 	call	8012f4 <i2bcd>
  8014a8:	e0bffd15 	stw	r2,-12(fp)
	c = (char)((bcd & 0x0F0) >>4);
  8014ac:	e0bffd17 	ldw	r2,-12(fp)
  8014b0:	10803c0c 	andi	r2,r2,240
  8014b4:	1004d13a 	srli	r2,r2,4
  8014b8:	e0bffe05 	stb	r2,-8(fp)
	s = (short) c +48;
  8014bc:	e0bffe07 	ldb	r2,-8(fp)
  8014c0:	10800c04 	addi	r2,r2,48
  8014c4:	e0bffe8d 	sth	r2,-6(fp)
	print_char(2*320/3-50 +30 +54+8+8, 130,4,0,(char)s);
  8014c8:	e0bffe8b 	ldhu	r2,-6(fp)
  8014cc:	10803fcc 	andi	r2,r2,255
  8014d0:	1080201c 	xori	r2,r2,128
  8014d4:	10bfe004 	addi	r2,r2,-128
  8014d8:	d8800015 	stw	r2,0(sp)
  8014dc:	000f883a 	mov	r7,zero
  8014e0:	01800104 	movi	r6,4
  8014e4:	01402084 	movi	r5,130
  8014e8:	010041c4 	movi	r4,263
  8014ec:	0801bd00 	call	801bd0 <print_char>

	c = (char)(bcd & 0x0F);
  8014f0:	e0bffd17 	ldw	r2,-12(fp)
  8014f4:	108003cc 	andi	r2,r2,15
  8014f8:	e0bffe05 	stb	r2,-8(fp)
	s = (short) c +48;
  8014fc:	e0bffe07 	ldb	r2,-8(fp)
  801500:	10800c04 	addi	r2,r2,48
  801504:	e0bffe8d 	sth	r2,-6(fp)
	print_char(2*320/3-50 +30 +54+8+8+8,130,4,0,(char)s);
  801508:	e0bffe8b 	ldhu	r2,-6(fp)
  80150c:	10803fcc 	andi	r2,r2,255
  801510:	1080201c 	xori	r2,r2,128
  801514:	10bfe004 	addi	r2,r2,-128
  801518:	d8800015 	stw	r2,0(sp)
  80151c:	000f883a 	mov	r7,zero
  801520:	01800104 	movi	r6,4
  801524:	01402084 	movi	r5,130
  801528:	010043c4 	movi	r4,271
  80152c:	0801bd00 	call	801bd0 <print_char>

	print_char(2*320/3-50 +30 +54+8+8+8+8,130,4,0,':');// :
  801530:	00800e84 	movi	r2,58
  801534:	d8800015 	stw	r2,0(sp)
  801538:	000f883a 	mov	r7,zero
  80153c:	01800104 	movi	r6,4
  801540:	01402084 	movi	r5,130
  801544:	010045c4 	movi	r4,279
  801548:	0801bd00 	call	801bd0 <print_char>


	bcd = i2bcd(seconds);								//seconds
  80154c:	d0a0d217 	ldw	r2,-31928(gp)
  801550:	1009883a 	mov	r4,r2
  801554:	08012f40 	call	8012f4 <i2bcd>
  801558:	e0bffd15 	stw	r2,-12(fp)
		c = (char)((bcd & 0x0F0) >>4);
  80155c:	e0bffd17 	ldw	r2,-12(fp)
  801560:	10803c0c 	andi	r2,r2,240
  801564:	1004d13a 	srli	r2,r2,4
  801568:	e0bffe05 	stb	r2,-8(fp)
		s = (short) c +48;
  80156c:	e0bffe07 	ldb	r2,-8(fp)
  801570:	10800c04 	addi	r2,r2,48
  801574:	e0bffe8d 	sth	r2,-6(fp)
		print_char(2*320/3-50 +30 +54+40, 130,4,0,(char)s);
  801578:	e0bffe8b 	ldhu	r2,-6(fp)
  80157c:	10803fcc 	andi	r2,r2,255
  801580:	1080201c 	xori	r2,r2,128
  801584:	10bfe004 	addi	r2,r2,-128
  801588:	d8800015 	stw	r2,0(sp)
  80158c:	000f883a 	mov	r7,zero
  801590:	01800104 	movi	r6,4
  801594:	01402084 	movi	r5,130
  801598:	010047c4 	movi	r4,287
  80159c:	0801bd00 	call	801bd0 <print_char>

		c = (char)(bcd & 0x0F);
  8015a0:	e0bffd17 	ldw	r2,-12(fp)
  8015a4:	108003cc 	andi	r2,r2,15
  8015a8:	e0bffe05 	stb	r2,-8(fp)
		s = (short) c +48;
  8015ac:	e0bffe07 	ldb	r2,-8(fp)
  8015b0:	10800c04 	addi	r2,r2,48
  8015b4:	e0bffe8d 	sth	r2,-6(fp)
		print_char(2*320/3-50 +30 +54+48,130,4,0,(char)s);
  8015b8:	e0bffe8b 	ldhu	r2,-6(fp)
  8015bc:	10803fcc 	andi	r2,r2,255
  8015c0:	1080201c 	xori	r2,r2,128
  8015c4:	10bfe004 	addi	r2,r2,-128
  8015c8:	d8800015 	stw	r2,0(sp)
  8015cc:	000f883a 	mov	r7,zero
  8015d0:	01800104 	movi	r6,4
  8015d4:	01402084 	movi	r5,130
  8015d8:	010049c4 	movi	r4,295
  8015dc:	0801bd00 	call	801bd0 <print_char>
}
  8015e0:	0001883a 	nop
  8015e4:	e037883a 	mov	sp,fp
  8015e8:	dfc00117 	ldw	ra,4(sp)
  8015ec:	df000017 	ldw	fp,0(sp)
  8015f0:	dec00204 	addi	sp,sp,8
  8015f4:	f800283a 	ret

008015f8 <high_lite_dot2Hz_sampling_on_screen>:
extern void high_lite_dot2Hz_sampling_on_screen(void)
{
  8015f8:	defffd04 	addi	sp,sp,-12
  8015fc:	dfc00215 	stw	ra,8(sp)
  801600:	df000115 	stw	fp,4(sp)
  801604:	df000104 	addi	fp,sp,4
	//Färga texten för den samplingsfrekvens som valts
						print_str(2*320/3 +5,210-60,5,"1st btn 5Hz");
  801608:	01c02034 	movhi	r7,128
  80160c:	39cd0304 	addi	r7,r7,13324
  801610:	01800144 	movi	r6,5
  801614:	01402584 	movi	r5,150
  801618:	01003684 	movi	r4,218
  80161c:	0801d000 	call	801d00 <print_str>
						print_str(2*320/3 +5,210-30,5,"2nd btn 1Hz");
  801620:	01c02034 	movhi	r7,128
  801624:	39cd0604 	addi	r7,r7,13336
  801628:	01800144 	movi	r6,5
  80162c:	01402d04 	movi	r5,180
  801630:	01003684 	movi	r4,218
  801634:	0801d000 	call	801d00 <print_str>
						print_str(2*320/3 +5,210,2,"3d btn .2Hz");
  801638:	01c02034 	movhi	r7,128
  80163c:	39cd0904 	addi	r7,r7,13348
  801640:	01800084 	movi	r6,2
  801644:	01403484 	movi	r5,210
  801648:	01003684 	movi	r4,218
  80164c:	0801d000 	call	801d00 <print_str>
						for(int i = 0; i < 5; i++)
  801650:	e03fff15 	stw	zero,-4(fp)
  801654:	00001406 	br	8016a8 <high_lite_dot2Hz_sampling_on_screen+0xb0>
						{
							TIMER_RESET;
  801658:	00d00034 	movhi	r3,16384
  80165c:	00804234 	movhi	r2,264
  801660:	10849904 	addi	r2,r2,4708
  801664:	10c00035 	stwio	r3,0(r2)
							TIMER_START;
  801668:	00e00034 	movhi	r3,32768
  80166c:	00804234 	movhi	r2,264
  801670:	10849904 	addi	r2,r2,4708
  801674:	10c00035 	stwio	r3,0(r2)

							while(TIMER_READ < 50000000);
  801678:	0001883a 	nop
  80167c:	00804234 	movhi	r2,264
  801680:	10849804 	addi	r2,r2,4704
  801684:	10c00037 	ldwio	r3,0(r2)
  801688:	0080bef4 	movhi	r2,763
  80168c:	10bc1fc4 	addi	r2,r2,-3969
  801690:	10fffa0e 	bge	r2,r3,80167c <__alt_data_end+0xff80167c>
							update_time(1);
  801694:	01000044 	movi	r4,1
  801698:	08013900 	call	801390 <update_time>
{
	//Färga texten för den samplingsfrekvens som valts
						print_str(2*320/3 +5,210-60,5,"1st btn 5Hz");
						print_str(2*320/3 +5,210-30,5,"2nd btn 1Hz");
						print_str(2*320/3 +5,210,2,"3d btn .2Hz");
						for(int i = 0; i < 5; i++)
  80169c:	e0bfff17 	ldw	r2,-4(fp)
  8016a0:	10800044 	addi	r2,r2,1
  8016a4:	e0bfff15 	stw	r2,-4(fp)
  8016a8:	e0bfff17 	ldw	r2,-4(fp)
  8016ac:	10800150 	cmplti	r2,r2,5
  8016b0:	103fe91e 	bne	r2,zero,801658 <__alt_data_end+0xff801658>

							while(TIMER_READ < 50000000);
							update_time(1);
						}

}
  8016b4:	0001883a 	nop
  8016b8:	e037883a 	mov	sp,fp
  8016bc:	dfc00117 	ldw	ra,4(sp)
  8016c0:	df000017 	ldw	fp,0(sp)
  8016c4:	dec00204 	addi	sp,sp,8
  8016c8:	f800283a 	ret

008016cc <high_lite_1Hz_sampling_on_screen>:

extern void high_lite_1Hz_sampling_on_screen(void)
{
  8016cc:	defffe04 	addi	sp,sp,-8
  8016d0:	dfc00115 	stw	ra,4(sp)
  8016d4:	df000015 	stw	fp,0(sp)
  8016d8:	d839883a 	mov	fp,sp
	//Färga texten för den samplingsfrekvens som valts
				print_str(2*320/3 +5,210-60,5,"1st btn 5Hz");
  8016dc:	01c02034 	movhi	r7,128
  8016e0:	39cd0304 	addi	r7,r7,13324
  8016e4:	01800144 	movi	r6,5
  8016e8:	01402584 	movi	r5,150
  8016ec:	01003684 	movi	r4,218
  8016f0:	0801d000 	call	801d00 <print_str>
				print_str(2*320/3 +5,210-30,2,"2nd btn 1Hz");
  8016f4:	01c02034 	movhi	r7,128
  8016f8:	39cd0604 	addi	r7,r7,13336
  8016fc:	01800084 	movi	r6,2
  801700:	01402d04 	movi	r5,180
  801704:	01003684 	movi	r4,218
  801708:	0801d000 	call	801d00 <print_str>
				print_str(2*320/3 +5,210,5,"3d btn .2Hz");
  80170c:	01c02034 	movhi	r7,128
  801710:	39cd0904 	addi	r7,r7,13348
  801714:	01800144 	movi	r6,5
  801718:	01403484 	movi	r5,210
  80171c:	01003684 	movi	r4,218
  801720:	0801d000 	call	801d00 <print_str>
				TIMER_RESET;
  801724:	00d00034 	movhi	r3,16384
  801728:	00804234 	movhi	r2,264
  80172c:	10849904 	addi	r2,r2,4708
  801730:	10c00035 	stwio	r3,0(r2)
				TIMER_START;
  801734:	00e00034 	movhi	r3,32768
  801738:	00804234 	movhi	r2,264
  80173c:	10849904 	addi	r2,r2,4708
  801740:	10c00035 	stwio	r3,0(r2)
					while(TIMER_READ < 50000000);
  801744:	0001883a 	nop
  801748:	00804234 	movhi	r2,264
  80174c:	10849804 	addi	r2,r2,4704
  801750:	10c00037 	ldwio	r3,0(r2)
  801754:	0080bef4 	movhi	r2,763
  801758:	10bc1fc4 	addi	r2,r2,-3969
  80175c:	10fffa0e 	bge	r2,r3,801748 <__alt_data_end+0xff801748>
					update_time(1);
  801760:	01000044 	movi	r4,1
  801764:	08013900 	call	801390 <update_time>
					TIMER_RESET;
  801768:	00d00034 	movhi	r3,16384
  80176c:	00804234 	movhi	r2,264
  801770:	10849904 	addi	r2,r2,4708
  801774:	10c00035 	stwio	r3,0(r2)

}
  801778:	0001883a 	nop
  80177c:	e037883a 	mov	sp,fp
  801780:	dfc00117 	ldw	ra,4(sp)
  801784:	df000017 	ldw	fp,0(sp)
  801788:	dec00204 	addi	sp,sp,8
  80178c:	f800283a 	ret

00801790 <high_lite_5Hz_sampling_on_screen>:

void high_lite_5Hz_sampling_on_screen(void)
{
  801790:	defffe04 	addi	sp,sp,-8
  801794:	dfc00115 	stw	ra,4(sp)
  801798:	df000015 	stw	fp,0(sp)
  80179c:	d839883a 	mov	fp,sp
			static int sub_seconds = 0;
	//Färga texten för den samplingsfrekvens som valts
			print_str(2*320/3 +5,210-60,2,"1st btn 5Hz");
  8017a0:	01c02034 	movhi	r7,128
  8017a4:	39cd0304 	addi	r7,r7,13324
  8017a8:	01800084 	movi	r6,2
  8017ac:	01402584 	movi	r5,150
  8017b0:	01003684 	movi	r4,218
  8017b4:	0801d000 	call	801d00 <print_str>
			print_str(2*320/3 +5,210-30,5,"2nd btn 1Hz");
  8017b8:	01c02034 	movhi	r7,128
  8017bc:	39cd0604 	addi	r7,r7,13336
  8017c0:	01800144 	movi	r6,5
  8017c4:	01402d04 	movi	r5,180
  8017c8:	01003684 	movi	r4,218
  8017cc:	0801d000 	call	801d00 <print_str>
			print_str(2*320/3 +5,210,5,"3d btn .2Hz");
  8017d0:	01c02034 	movhi	r7,128
  8017d4:	39cd0904 	addi	r7,r7,13348
  8017d8:	01800144 	movi	r6,5
  8017dc:	01403484 	movi	r5,210
  8017e0:	01003684 	movi	r4,218
  8017e4:	0801d000 	call	801d00 <print_str>
			TIMER_RESET;
  8017e8:	00d00034 	movhi	r3,16384
  8017ec:	00804234 	movhi	r2,264
  8017f0:	10849904 	addi	r2,r2,4708
  8017f4:	10c00035 	stwio	r3,0(r2)
			TIMER_START;
  8017f8:	00e00034 	movhi	r3,32768
  8017fc:	00804234 	movhi	r2,264
  801800:	10849904 	addi	r2,r2,4708
  801804:	10c00035 	stwio	r3,0(r2)
			while(TIMER_READ < 10);
  801808:	0001883a 	nop
  80180c:	00804234 	movhi	r2,264
  801810:	10849804 	addi	r2,r2,4704
  801814:	10800037 	ldwio	r2,0(r2)
  801818:	10800290 	cmplti	r2,r2,10
  80181c:	103ffb1e 	bne	r2,zero,80180c <__alt_data_end+0xff80180c>
			sub_seconds++;
  801820:	d0a0d517 	ldw	r2,-31916(gp)
  801824:	10800044 	addi	r2,r2,1
  801828:	d0a0d515 	stw	r2,-31916(gp)
			TIMER_RESET;
  80182c:	00d00034 	movhi	r3,16384
  801830:	00804234 	movhi	r2,264
  801834:	10849904 	addi	r2,r2,4708
  801838:	10c00035 	stwio	r3,0(r2)
			TIMER_START;
  80183c:	00e00034 	movhi	r3,32768
  801840:	00804234 	movhi	r2,264
  801844:	10849904 	addi	r2,r2,4708
  801848:	10c00035 	stwio	r3,0(r2)
			if(sub_seconds == 5)
  80184c:	d0a0d517 	ldw	r2,-31916(gp)
  801850:	10800158 	cmpnei	r2,r2,5
  801854:	1000031e 	bne	r2,zero,801864 <high_lite_5Hz_sampling_on_screen+0xd4>
			{
				update_time(1);
  801858:	01000044 	movi	r4,1
  80185c:	08013900 	call	801390 <update_time>
				sub_seconds = 0;
  801860:	d020d515 	stw	zero,-31916(gp)
			}
}
  801864:	0001883a 	nop
  801868:	e037883a 	mov	sp,fp
  80186c:	dfc00117 	ldw	ra,4(sp)
  801870:	df000017 	ldw	fp,0(sp)
  801874:	dec00204 	addi	sp,sp,8
  801878:	f800283a 	ret

0080187c <draw_sampling_frequecy_sub_screen>:

extern void draw_sampling_frequecy_sub_screen(void)
{
  80187c:	defffd04 	addi	sp,sp,-12
  801880:	dfc00215 	stw	ra,8(sp)
  801884:	df000115 	stw	fp,4(sp)
  801888:	df000104 	addi	fp,sp,4
	for(int i = 0; i < 78600; i++)
  80188c:	e03fff15 	stw	zero,-4(fp)
  801890:	00000b06 	br	8018c0 <draw_sampling_frequecy_sub_screen+0x44>
				set_address_pixel(i, 0);
  801894:	e0bfff17 	ldw	r2,-4(fp)
  801898:	1085883a 	add	r2,r2,r2
  80189c:	1085883a 	add	r2,r2,r2
  8018a0:	1007883a 	mov	r3,r2
  8018a4:	00804034 	movhi	r2,256
  8018a8:	1885883a 	add	r2,r3,r2
  8018ac:	0007883a 	mov	r3,zero
  8018b0:	10c00035 	stwio	r3,0(r2)
			}
}

extern void draw_sampling_frequecy_sub_screen(void)
{
	for(int i = 0; i < 78600; i++)
  8018b4:	e0bfff17 	ldw	r2,-4(fp)
  8018b8:	10800044 	addi	r2,r2,1
  8018bc:	e0bfff15 	stw	r2,-4(fp)
  8018c0:	e0ffff17 	ldw	r3,-4(fp)
  8018c4:	00800074 	movhi	r2,1
  8018c8:	108cc1c4 	addi	r2,r2,13063
  8018cc:	10fff10e 	bge	r2,r3,801894 <__alt_data_end+0xff801894>
				set_address_pixel(i, 0);

			print_hline(0,120,320,6);
  8018d0:	01c00184 	movi	r7,6
  8018d4:	01805004 	movi	r6,320
  8018d8:	01401e04 	movi	r5,120
  8018dc:	0009883a 	mov	r4,zero
  8018e0:	0801a300 	call	801a30 <print_hline>
			print_vline(320/3,0,240,6);
  8018e4:	01c00184 	movi	r7,6
  8018e8:	01803c04 	movi	r6,240
  8018ec:	000b883a 	mov	r5,zero
  8018f0:	01001a84 	movi	r4,106
  8018f4:	0801b000 	call	801b00 <print_vline>
			print_vline(2*320/3,0,240,6);
  8018f8:	01c00184 	movi	r7,6
  8018fc:	01803c04 	movi	r6,240
  801900:	000b883a 	mov	r5,zero
  801904:	01003544 	movi	r4,213
  801908:	0801b000 	call	801b00 <print_vline>

			print_str(2*320/3 +5,210-60,5,"1st btn 5Hz");
  80190c:	01c02034 	movhi	r7,128
  801910:	39cd0304 	addi	r7,r7,13324
  801914:	01800144 	movi	r6,5
  801918:	01402584 	movi	r5,150
  80191c:	01003684 	movi	r4,218
  801920:	0801d000 	call	801d00 <print_str>
			print_str(2*320/3 +5,210-30,5,"2nd btn 1Hz");
  801924:	01c02034 	movhi	r7,128
  801928:	39cd0604 	addi	r7,r7,13336
  80192c:	01800144 	movi	r6,5
  801930:	01402d04 	movi	r5,180
  801934:	01003684 	movi	r4,218
  801938:	0801d000 	call	801d00 <print_str>
			print_str(2*320/3 +5,210,5,"3d btn .2Hz");
  80193c:	01c02034 	movhi	r7,128
  801940:	39cd0904 	addi	r7,r7,13348
  801944:	01800144 	movi	r6,5
  801948:	01403484 	movi	r5,210
  80194c:	01003684 	movi	r4,218
  801950:	0801d000 	call	801d00 <print_str>
			print_str(2*320/3 +5,230,5,"L.Karagiannis");
  801954:	01c02034 	movhi	r7,128
  801958:	39cd0c04 	addi	r7,r7,13360
  80195c:	01800144 	movi	r6,5
  801960:	01403984 	movi	r5,230
  801964:	01003684 	movi	r4,218
  801968:	0801d000 	call	801d00 <print_str>

}
  80196c:	0001883a 	nop
  801970:	e037883a 	mov	sp,fp
  801974:	dfc00117 	ldw	ra,4(sp)
  801978:	df000017 	ldw	fp,0(sp)
  80197c:	dec00204 	addi	sp,sp,8
  801980:	f800283a 	ret

00801984 <print_pix>:


void print_pix(alt_u32 x,alt_u32 y,alt_u32 rgb)
{
  801984:	defffb04 	addi	sp,sp,-20
  801988:	dfc00415 	stw	ra,16(sp)
  80198c:	df000315 	stw	fp,12(sp)
  801990:	df000304 	addi	fp,sp,12
  801994:	e13ffd15 	stw	r4,-12(fp)
  801998:	e17ffe15 	stw	r5,-8(fp)
  80199c:	e1bfff15 	stw	r6,-4(fp)
	if(rgb <= 7 && rgb >= 0)
  8019a0:	e0bfff17 	ldw	r2,-4(fp)
  8019a4:	10800228 	cmpgeui	r2,r2,8
  8019a8:	10000e1e 	bne	r2,zero,8019e4 <print_pix+0x60>
		set_pixel(x,y,rgb);
  8019ac:	01405004 	movi	r5,320
  8019b0:	e13ffe17 	ldw	r4,-8(fp)
  8019b4:	080240c0 	call	80240c <__mulsi3>
  8019b8:	1007883a 	mov	r3,r2
  8019bc:	e0bffd17 	ldw	r2,-12(fp)
  8019c0:	1885883a 	add	r2,r3,r2
  8019c4:	1085883a 	add	r2,r2,r2
  8019c8:	1085883a 	add	r2,r2,r2
  8019cc:	1007883a 	mov	r3,r2
  8019d0:	00804034 	movhi	r2,256
  8019d4:	1885883a 	add	r2,r3,r2
  8019d8:	e0ffff17 	ldw	r3,-4(fp)
  8019dc:	10c00035 	stwio	r3,0(r2)
	else
		set_pixel(x,y,0);
}
  8019e0:	00000d06 	br	801a18 <print_pix+0x94>
void print_pix(alt_u32 x,alt_u32 y,alt_u32 rgb)
{
	if(rgb <= 7 && rgb >= 0)
		set_pixel(x,y,rgb);
	else
		set_pixel(x,y,0);
  8019e4:	01405004 	movi	r5,320
  8019e8:	e13ffe17 	ldw	r4,-8(fp)
  8019ec:	080240c0 	call	80240c <__mulsi3>
  8019f0:	1007883a 	mov	r3,r2
  8019f4:	e0bffd17 	ldw	r2,-12(fp)
  8019f8:	1885883a 	add	r2,r3,r2
  8019fc:	1085883a 	add	r2,r2,r2
  801a00:	1085883a 	add	r2,r2,r2
  801a04:	1007883a 	mov	r3,r2
  801a08:	00804034 	movhi	r2,256
  801a0c:	1885883a 	add	r2,r3,r2
  801a10:	0007883a 	mov	r3,zero
  801a14:	10c00035 	stwio	r3,0(r2)
}
  801a18:	0001883a 	nop
  801a1c:	e037883a 	mov	sp,fp
  801a20:	dfc00117 	ldw	ra,4(sp)
  801a24:	df000017 	ldw	fp,0(sp)
  801a28:	dec00204 	addi	sp,sp,8
  801a2c:	f800283a 	ret

00801a30 <print_hline>:
void print_hline(alt_u32 x_start,alt_u32 y_start, alt_u32 len,alt_u32 RGB){
  801a30:	defff804 	addi	sp,sp,-32
  801a34:	dfc00715 	stw	ra,28(sp)
  801a38:	df000615 	stw	fp,24(sp)
  801a3c:	df000604 	addi	fp,sp,24
  801a40:	e13ffc15 	stw	r4,-16(fp)
  801a44:	e17ffd15 	stw	r5,-12(fp)
  801a48:	e1bffe15 	stw	r6,-8(fp)
  801a4c:	e1ffff15 	stw	r7,-4(fp)



	if(x_start + len <= 320){
  801a50:	e0fffc17 	ldw	r3,-16(fp)
  801a54:	e0bffe17 	ldw	r2,-8(fp)
  801a58:	1885883a 	add	r2,r3,r2
  801a5c:	10805068 	cmpgeui	r2,r2,321
  801a60:	1000101e 	bne	r2,zero,801aa4 <print_hline+0x74>
		for(int i = 0; i < len; i++){
  801a64:	e03ffa15 	stw	zero,-24(fp)
  801a68:	00000a06 	br	801a94 <print_hline+0x64>
			print_pix(x_start + i,y_start, RGB);
  801a6c:	e0fffa17 	ldw	r3,-24(fp)
  801a70:	e0bffc17 	ldw	r2,-16(fp)
  801a74:	1885883a 	add	r2,r3,r2
  801a78:	e1bfff17 	ldw	r6,-4(fp)
  801a7c:	e17ffd17 	ldw	r5,-12(fp)
  801a80:	1009883a 	mov	r4,r2
  801a84:	08019840 	call	801984 <print_pix>
void print_hline(alt_u32 x_start,alt_u32 y_start, alt_u32 len,alt_u32 RGB){



	if(x_start + len <= 320){
		for(int i = 0; i < len; i++){
  801a88:	e0bffa17 	ldw	r2,-24(fp)
  801a8c:	10800044 	addi	r2,r2,1
  801a90:	e0bffa15 	stw	r2,-24(fp)
  801a94:	e0fffa17 	ldw	r3,-24(fp)
  801a98:	e0bffe17 	ldw	r2,-8(fp)
  801a9c:	18bff336 	bltu	r3,r2,801a6c <__alt_data_end+0xff801a6c>
		for(int i = 0; i < (320-x_start); i++){
					print_pix(x_start + i,y_start, RGB);
		}
	}

}
  801aa0:	00001106 	br	801ae8 <print_hline+0xb8>
			print_pix(x_start + i,y_start, RGB);
		}
	}
	else{

		for(int i = 0; i < (320-x_start); i++){
  801aa4:	e03ffb15 	stw	zero,-20(fp)
  801aa8:	00000a06 	br	801ad4 <print_hline+0xa4>
					print_pix(x_start + i,y_start, RGB);
  801aac:	e0fffb17 	ldw	r3,-20(fp)
  801ab0:	e0bffc17 	ldw	r2,-16(fp)
  801ab4:	1885883a 	add	r2,r3,r2
  801ab8:	e1bfff17 	ldw	r6,-4(fp)
  801abc:	e17ffd17 	ldw	r5,-12(fp)
  801ac0:	1009883a 	mov	r4,r2
  801ac4:	08019840 	call	801984 <print_pix>
			print_pix(x_start + i,y_start, RGB);
		}
	}
	else{

		for(int i = 0; i < (320-x_start); i++){
  801ac8:	e0bffb17 	ldw	r2,-20(fp)
  801acc:	10800044 	addi	r2,r2,1
  801ad0:	e0bffb15 	stw	r2,-20(fp)
  801ad4:	00c05004 	movi	r3,320
  801ad8:	e0bffc17 	ldw	r2,-16(fp)
  801adc:	1885c83a 	sub	r2,r3,r2
  801ae0:	e0fffb17 	ldw	r3,-20(fp)
  801ae4:	18bff136 	bltu	r3,r2,801aac <__alt_data_end+0xff801aac>
					print_pix(x_start + i,y_start, RGB);
		}
	}

}
  801ae8:	0001883a 	nop
  801aec:	e037883a 	mov	sp,fp
  801af0:	dfc00117 	ldw	ra,4(sp)
  801af4:	df000017 	ldw	fp,0(sp)
  801af8:	dec00204 	addi	sp,sp,8
  801afc:	f800283a 	ret

00801b00 <print_vline>:
void print_vline(alt_u32 x_start,alt_u32 y_start, alt_u32 len, alt_u32 RGB)
{
  801b00:	defff804 	addi	sp,sp,-32
  801b04:	dfc00715 	stw	ra,28(sp)
  801b08:	df000615 	stw	fp,24(sp)
  801b0c:	df000604 	addi	fp,sp,24
  801b10:	e13ffc15 	stw	r4,-16(fp)
  801b14:	e17ffd15 	stw	r5,-12(fp)
  801b18:	e1bffe15 	stw	r6,-8(fp)
  801b1c:	e1ffff15 	stw	r7,-4(fp)
	if(y_start + len <= 240){
  801b20:	e0fffd17 	ldw	r3,-12(fp)
  801b24:	e0bffe17 	ldw	r2,-8(fp)
  801b28:	1885883a 	add	r2,r3,r2
  801b2c:	10803c68 	cmpgeui	r2,r2,241
  801b30:	1000101e 	bne	r2,zero,801b74 <print_vline+0x74>
			for(int i = 0; i < len; i++){
  801b34:	e03ffa15 	stw	zero,-24(fp)
  801b38:	00000a06 	br	801b64 <print_vline+0x64>
				print_pix(x_start,y_start + i, RGB);
  801b3c:	e0fffa17 	ldw	r3,-24(fp)
  801b40:	e0bffd17 	ldw	r2,-12(fp)
  801b44:	1885883a 	add	r2,r3,r2
  801b48:	e1bfff17 	ldw	r6,-4(fp)
  801b4c:	100b883a 	mov	r5,r2
  801b50:	e13ffc17 	ldw	r4,-16(fp)
  801b54:	08019840 	call	801984 <print_pix>

}
void print_vline(alt_u32 x_start,alt_u32 y_start, alt_u32 len, alt_u32 RGB)
{
	if(y_start + len <= 240){
			for(int i = 0; i < len; i++){
  801b58:	e0bffa17 	ldw	r2,-24(fp)
  801b5c:	10800044 	addi	r2,r2,1
  801b60:	e0bffa15 	stw	r2,-24(fp)
  801b64:	e0fffa17 	ldw	r3,-24(fp)
  801b68:	e0bffe17 	ldw	r2,-8(fp)
  801b6c:	18bff336 	bltu	r3,r2,801b3c <__alt_data_end+0xff801b3c>

			for(int i = 0; i < (240-y_start); i++){
						print_pix(x_start,y_start +i , RGB);
			}
		}
}
  801b70:	00001106 	br	801bb8 <print_vline+0xb8>
				print_pix(x_start,y_start + i, RGB);
			}
		}
		else{

			for(int i = 0; i < (240-y_start); i++){
  801b74:	e03ffb15 	stw	zero,-20(fp)
  801b78:	00000a06 	br	801ba4 <print_vline+0xa4>
						print_pix(x_start,y_start +i , RGB);
  801b7c:	e0fffb17 	ldw	r3,-20(fp)
  801b80:	e0bffd17 	ldw	r2,-12(fp)
  801b84:	1885883a 	add	r2,r3,r2
  801b88:	e1bfff17 	ldw	r6,-4(fp)
  801b8c:	100b883a 	mov	r5,r2
  801b90:	e13ffc17 	ldw	r4,-16(fp)
  801b94:	08019840 	call	801984 <print_pix>
				print_pix(x_start,y_start + i, RGB);
			}
		}
		else{

			for(int i = 0; i < (240-y_start); i++){
  801b98:	e0bffb17 	ldw	r2,-20(fp)
  801b9c:	10800044 	addi	r2,r2,1
  801ba0:	e0bffb15 	stw	r2,-20(fp)
  801ba4:	00c03c04 	movi	r3,240
  801ba8:	e0bffd17 	ldw	r2,-12(fp)
  801bac:	1885c83a 	sub	r2,r3,r2
  801bb0:	e0fffb17 	ldw	r3,-20(fp)
  801bb4:	18bff136 	bltu	r3,r2,801b7c <__alt_data_end+0xff801b7c>
						print_pix(x_start,y_start +i , RGB);
			}
		}
}
  801bb8:	0001883a 	nop
  801bbc:	e037883a 	mov	sp,fp
  801bc0:	dfc00117 	ldw	ra,4(sp)
  801bc4:	df000017 	ldw	fp,0(sp)
  801bc8:	dec00204 	addi	sp,sp,8
  801bcc:	f800283a 	ret

00801bd0 <print_char>:

void  print_char(alt_u32 x,alt_u32 y,alt_u32 rgb,alt_u32 BG_RGB,char Character)
{
  801bd0:	defef604 	addi	sp,sp,-1064
  801bd4:	dfc10915 	stw	ra,1060(sp)
  801bd8:	df010815 	stw	fp,1056(sp)
  801bdc:	df010804 	addi	fp,sp,1056
  801be0:	e13ffb15 	stw	r4,-20(fp)
  801be4:	e17ffc15 	stw	r5,-16(fp)
  801be8:	e1bffd15 	stw	r6,-12(fp)
  801bec:	e1fffe15 	stw	r7,-8(fp)
  801bf0:	e0800217 	ldw	r2,8(fp)
  801bf4:	e0bfff05 	stb	r2,-4(fp)
	 alt_u8 font8x8_basic[128][8] = {
  801bf8:	00802034 	movhi	r2,128
  801bfc:	108d0f84 	addi	r2,r2,13374
  801c00:	e0fefa84 	addi	r3,fp,-1046
  801c04:	1009883a 	mov	r4,r2
  801c08:	00810004 	movi	r2,1024
  801c0c:	100d883a 	mov	r6,r2
  801c10:	200b883a 	mov	r5,r4
  801c14:	1809883a 	mov	r4,r3
  801c18:	08024a40 	call	8024a4 <memcpy>
	    { 0x00, 0x00, 0x00, 0x00, 0x00, 0x00, 0x00, 0x00}    // U+007F
	};
	alt_u8 temp;
	int row;

	alt_u8  token = (alt_u8)Character;
  801c1c:	e0bfff03 	ldbu	r2,-4(fp)
  801c20:	e0befa05 	stb	r2,-1048(fp)
	for (row = 0; row <8; row++)
  801c24:	e03ef815 	stw	zero,-1056(fp)
  801c28:	00002c06 	br	801cdc <print_char+0x10c>
	{
			temp =  (alt_u8)font8x8_basic[token][row];
  801c2c:	e0befa03 	ldbu	r2,-1048(fp)
  801c30:	100490fa 	slli	r2,r2,3
  801c34:	e13ef804 	addi	r4,fp,-1056
  801c38:	2087883a 	add	r3,r4,r2
  801c3c:	e0bef817 	ldw	r2,-1056(fp)
  801c40:	1885883a 	add	r2,r3,r2
  801c44:	10800284 	addi	r2,r2,10
  801c48:	10800003 	ldbu	r2,0(r2)
  801c4c:	e0befa45 	stb	r2,-1047(fp)

			for (int pos = 0 ; pos != 8 ; pos++) {
  801c50:	e03ef915 	stw	zero,-1052(fp)
  801c54:	00001b06 	br	801cc4 <print_char+0xf4>
			    if (temp & (1 << pos)) {
  801c58:	e0fefa43 	ldbu	r3,-1047(fp)
  801c5c:	e0bef917 	ldw	r2,-1052(fp)
  801c60:	1885d83a 	sra	r2,r3,r2
  801c64:	1080004c 	andi	r2,r2,1
  801c68:	10000a26 	beq	r2,zero,801c94 <print_char+0xc4>
			        // Current bit is set to 1
			    	print_pix(x+pos,y+row,rgb);
  801c6c:	e0fef917 	ldw	r3,-1052(fp)
  801c70:	e0bffb17 	ldw	r2,-20(fp)
  801c74:	1889883a 	add	r4,r3,r2
  801c78:	e0fef817 	ldw	r3,-1056(fp)
  801c7c:	e0bffc17 	ldw	r2,-16(fp)
  801c80:	1885883a 	add	r2,r3,r2
  801c84:	e1bffd17 	ldw	r6,-12(fp)
  801c88:	100b883a 	mov	r5,r2
  801c8c:	08019840 	call	801984 <print_pix>
  801c90:	00000906 	br	801cb8 <print_char+0xe8>
			    } else {
			        // Current bit is set to 0
			    	print_pix(x+pos,y+row,BG_RGB);
  801c94:	e0fef917 	ldw	r3,-1052(fp)
  801c98:	e0bffb17 	ldw	r2,-20(fp)
  801c9c:	1889883a 	add	r4,r3,r2
  801ca0:	e0fef817 	ldw	r3,-1056(fp)
  801ca4:	e0bffc17 	ldw	r2,-16(fp)
  801ca8:	1885883a 	add	r2,r3,r2
  801cac:	e1bffe17 	ldw	r6,-8(fp)
  801cb0:	100b883a 	mov	r5,r2
  801cb4:	08019840 	call	801984 <print_pix>
	alt_u8  token = (alt_u8)Character;
	for (row = 0; row <8; row++)
	{
			temp =  (alt_u8)font8x8_basic[token][row];

			for (int pos = 0 ; pos != 8 ; pos++) {
  801cb8:	e0bef917 	ldw	r2,-1052(fp)
  801cbc:	10800044 	addi	r2,r2,1
  801cc0:	e0bef915 	stw	r2,-1052(fp)
  801cc4:	e0bef917 	ldw	r2,-1052(fp)
  801cc8:	10800218 	cmpnei	r2,r2,8
  801ccc:	103fe21e 	bne	r2,zero,801c58 <__alt_data_end+0xff801c58>
	};
	alt_u8 temp;
	int row;

	alt_u8  token = (alt_u8)Character;
	for (row = 0; row <8; row++)
  801cd0:	e0bef817 	ldw	r2,-1056(fp)
  801cd4:	10800044 	addi	r2,r2,1
  801cd8:	e0bef815 	stw	r2,-1056(fp)
  801cdc:	e0bef817 	ldw	r2,-1056(fp)
  801ce0:	10800210 	cmplti	r2,r2,8
  801ce4:	103fd11e 	bne	r2,zero,801c2c <__alt_data_end+0xff801c2c>
			        // Current bit is set to 0
			    	print_pix(x+pos,y+row,BG_RGB);
			    }
			}
	}
}
  801ce8:	0001883a 	nop
  801cec:	e037883a 	mov	sp,fp
  801cf0:	dfc00117 	ldw	ra,4(sp)
  801cf4:	df000017 	ldw	fp,0(sp)
  801cf8:	dec00204 	addi	sp,sp,8
  801cfc:	f800283a 	ret

00801d00 <print_str>:
void print_str(alt_u32 x_start, alt_u32 y_start,alt_u32 rgb, const char *str)
{
  801d00:	defff804 	addi	sp,sp,-32
  801d04:	dfc00715 	stw	ra,28(sp)
  801d08:	df000615 	stw	fp,24(sp)
  801d0c:	df000604 	addi	fp,sp,24
  801d10:	e13ffc15 	stw	r4,-16(fp)
  801d14:	e17ffd15 	stw	r5,-12(fp)
  801d18:	e1bffe15 	stw	r6,-8(fp)
  801d1c:	e1ffff15 	stw	r7,-4(fp)
	alt_u16 len = (alt_u16) strlen(str);
  801d20:	e13fff17 	ldw	r4,-4(fp)
  801d24:	08024ec0 	call	8024ec <strlen>
  801d28:	e0bffb8d 	sth	r2,-18(fp)
	alt_u16 i;
	for(i=0; i< len; i++){
  801d2c:	e03ffb0d 	sth	zero,-20(fp)
  801d30:	00001406 	br	801d84 <print_str+0x84>
		print_char(x_start + i*8,y_start,rgb,0,str[i]);
  801d34:	e0bffb0b 	ldhu	r2,-20(fp)
  801d38:	100490fa 	slli	r2,r2,3
  801d3c:	1007883a 	mov	r3,r2
  801d40:	e0bffc17 	ldw	r2,-16(fp)
  801d44:	1889883a 	add	r4,r3,r2
  801d48:	e0bffb0b 	ldhu	r2,-20(fp)
  801d4c:	e0ffff17 	ldw	r3,-4(fp)
  801d50:	1885883a 	add	r2,r3,r2
  801d54:	10800003 	ldbu	r2,0(r2)
  801d58:	10803fcc 	andi	r2,r2,255
  801d5c:	1080201c 	xori	r2,r2,128
  801d60:	10bfe004 	addi	r2,r2,-128
  801d64:	d8800015 	stw	r2,0(sp)
  801d68:	000f883a 	mov	r7,zero
  801d6c:	e1bffe17 	ldw	r6,-8(fp)
  801d70:	e17ffd17 	ldw	r5,-12(fp)
  801d74:	0801bd00 	call	801bd0 <print_char>
}
void print_str(alt_u32 x_start, alt_u32 y_start,alt_u32 rgb, const char *str)
{
	alt_u16 len = (alt_u16) strlen(str);
	alt_u16 i;
	for(i=0; i< len; i++){
  801d78:	e0bffb0b 	ldhu	r2,-20(fp)
  801d7c:	10800044 	addi	r2,r2,1
  801d80:	e0bffb0d 	sth	r2,-20(fp)
  801d84:	e0fffb0b 	ldhu	r3,-20(fp)
  801d88:	e0bffb8b 	ldhu	r2,-18(fp)
  801d8c:	18bfe936 	bltu	r3,r2,801d34 <__alt_data_end+0xff801d34>
		print_char(x_start + i*8,y_start,rgb,0,str[i]);
	}
}
  801d90:	0001883a 	nop
  801d94:	e037883a 	mov	sp,fp
  801d98:	dfc00117 	ldw	ra,4(sp)
  801d9c:	df000017 	ldw	fp,0(sp)
  801da0:	dec00204 	addi	sp,sp,8
  801da4:	f800283a 	ret

00801da8 <print_symmetry_dots_circle>:

void print_symmetry_dots_circle(alt_u32 x, alt_u32 y, alt_u32 x_centrum, alt_u32 y_centrum, alt_u32 rgb)
{
  801da8:	defffa04 	addi	sp,sp,-24
  801dac:	dfc00515 	stw	ra,20(sp)
  801db0:	df000415 	stw	fp,16(sp)
  801db4:	df000404 	addi	fp,sp,16
  801db8:	e13ffc15 	stw	r4,-16(fp)
  801dbc:	e17ffd15 	stw	r5,-12(fp)
  801dc0:	e1bffe15 	stw	r6,-8(fp)
  801dc4:	e1ffff15 	stw	r7,-4(fp)
		print_pix(x+x_centrum,y + y_centrum,rgb);
  801dc8:	e0fffc17 	ldw	r3,-16(fp)
  801dcc:	e0bffe17 	ldw	r2,-8(fp)
  801dd0:	1889883a 	add	r4,r3,r2
  801dd4:	e0fffd17 	ldw	r3,-12(fp)
  801dd8:	e0bfff17 	ldw	r2,-4(fp)
  801ddc:	1885883a 	add	r2,r3,r2
  801de0:	e1800217 	ldw	r6,8(fp)
  801de4:	100b883a 	mov	r5,r2
  801de8:	08019840 	call	801984 <print_pix>
		print_pix(x+x_centrum,-y + y_centrum,rgb);
  801dec:	e0fffc17 	ldw	r3,-16(fp)
  801df0:	e0bffe17 	ldw	r2,-8(fp)
  801df4:	1889883a 	add	r4,r3,r2
  801df8:	e0ffff17 	ldw	r3,-4(fp)
  801dfc:	e0bffd17 	ldw	r2,-12(fp)
  801e00:	1885c83a 	sub	r2,r3,r2
  801e04:	e1800217 	ldw	r6,8(fp)
  801e08:	100b883a 	mov	r5,r2
  801e0c:	08019840 	call	801984 <print_pix>
		print_pix(-x+x_centrum,y + y_centrum,rgb);
  801e10:	e0fffe17 	ldw	r3,-8(fp)
  801e14:	e0bffc17 	ldw	r2,-16(fp)
  801e18:	1889c83a 	sub	r4,r3,r2
  801e1c:	e0fffd17 	ldw	r3,-12(fp)
  801e20:	e0bfff17 	ldw	r2,-4(fp)
  801e24:	1885883a 	add	r2,r3,r2
  801e28:	e1800217 	ldw	r6,8(fp)
  801e2c:	100b883a 	mov	r5,r2
  801e30:	08019840 	call	801984 <print_pix>
		print_pix(-x+x_centrum,-y + y_centrum,rgb);
  801e34:	e0fffe17 	ldw	r3,-8(fp)
  801e38:	e0bffc17 	ldw	r2,-16(fp)
  801e3c:	1889c83a 	sub	r4,r3,r2
  801e40:	e0ffff17 	ldw	r3,-4(fp)
  801e44:	e0bffd17 	ldw	r2,-12(fp)
  801e48:	1885c83a 	sub	r2,r3,r2
  801e4c:	e1800217 	ldw	r6,8(fp)
  801e50:	100b883a 	mov	r5,r2
  801e54:	08019840 	call	801984 <print_pix>

		print_pix(y + x_centrum,x+y_centrum,rgb);
  801e58:	e0fffd17 	ldw	r3,-12(fp)
  801e5c:	e0bffe17 	ldw	r2,-8(fp)
  801e60:	1889883a 	add	r4,r3,r2
  801e64:	e0fffc17 	ldw	r3,-16(fp)
  801e68:	e0bfff17 	ldw	r2,-4(fp)
  801e6c:	1885883a 	add	r2,r3,r2
  801e70:	e1800217 	ldw	r6,8(fp)
  801e74:	100b883a 	mov	r5,r2
  801e78:	08019840 	call	801984 <print_pix>
		print_pix(-y + x_centrum,x+y_centrum,rgb);
  801e7c:	e0fffe17 	ldw	r3,-8(fp)
  801e80:	e0bffd17 	ldw	r2,-12(fp)
  801e84:	1889c83a 	sub	r4,r3,r2
  801e88:	e0fffc17 	ldw	r3,-16(fp)
  801e8c:	e0bfff17 	ldw	r2,-4(fp)
  801e90:	1885883a 	add	r2,r3,r2
  801e94:	e1800217 	ldw	r6,8(fp)
  801e98:	100b883a 	mov	r5,r2
  801e9c:	08019840 	call	801984 <print_pix>
		print_pix(y + x_centrum,-x+y_centrum,rgb);
  801ea0:	e0fffd17 	ldw	r3,-12(fp)
  801ea4:	e0bffe17 	ldw	r2,-8(fp)
  801ea8:	1889883a 	add	r4,r3,r2
  801eac:	e0ffff17 	ldw	r3,-4(fp)
  801eb0:	e0bffc17 	ldw	r2,-16(fp)
  801eb4:	1885c83a 	sub	r2,r3,r2
  801eb8:	e1800217 	ldw	r6,8(fp)
  801ebc:	100b883a 	mov	r5,r2
  801ec0:	08019840 	call	801984 <print_pix>
		print_pix(-y + x_centrum,-x+y_centrum,rgb);
  801ec4:	e0fffe17 	ldw	r3,-8(fp)
  801ec8:	e0bffd17 	ldw	r2,-12(fp)
  801ecc:	1889c83a 	sub	r4,r3,r2
  801ed0:	e0ffff17 	ldw	r3,-4(fp)
  801ed4:	e0bffc17 	ldw	r2,-16(fp)
  801ed8:	1885c83a 	sub	r2,r3,r2
  801edc:	e1800217 	ldw	r6,8(fp)
  801ee0:	100b883a 	mov	r5,r2
  801ee4:	08019840 	call	801984 <print_pix>

}
  801ee8:	0001883a 	nop
  801eec:	e037883a 	mov	sp,fp
  801ef0:	dfc00117 	ldw	ra,4(sp)
  801ef4:	df000017 	ldw	fp,0(sp)
  801ef8:	dec00204 	addi	sp,sp,8
  801efc:	f800283a 	ret

00801f00 <print_empty_circle>:
void print_empty_circle(alt_u32 radie, alt_u32 x_centrum, alt_u32 y_centrum, alt_u32 rgb)
{
  801f00:	defff604 	addi	sp,sp,-40
  801f04:	dfc00915 	stw	ra,36(sp)
  801f08:	df000815 	stw	fp,32(sp)
  801f0c:	df000804 	addi	fp,sp,32
  801f10:	e13ffc15 	stw	r4,-16(fp)
  801f14:	e17ffd15 	stw	r5,-12(fp)
  801f18:	e1bffe15 	stw	r6,-8(fp)
  801f1c:	e1ffff15 	stw	r7,-4(fp)
		//unsigned int value;
		//unsigned int radius = radie;
		int x = 0;
  801f20:	e03ff915 	stw	zero,-28(fp)
		int y = radie;
  801f24:	e0bffc17 	ldw	r2,-16(fp)
  801f28:	e0bffa15 	stw	r2,-24(fp)

		print_symmetry_dots_circle(x,y,x_centrum,y_centrum,rgb);
  801f2c:	e0fff917 	ldw	r3,-28(fp)
  801f30:	e13ffa17 	ldw	r4,-24(fp)
  801f34:	e0bfff17 	ldw	r2,-4(fp)
  801f38:	d8800015 	stw	r2,0(sp)
  801f3c:	e1fffe17 	ldw	r7,-8(fp)
  801f40:	e1bffd17 	ldw	r6,-12(fp)
  801f44:	200b883a 	mov	r5,r4
  801f48:	1809883a 	mov	r4,r3
  801f4c:	0801da80 	call	801da8 <print_symmetry_dots_circle>
		int h = 1- radie;
  801f50:	00c00044 	movi	r3,1
  801f54:	e0bffc17 	ldw	r2,-16(fp)
  801f58:	1885c83a 	sub	r2,r3,r2
  801f5c:	e0bffb15 	stw	r2,-20(fp)
		while(y > x){
  801f60:	00003306 	br	802030 <print_empty_circle+0x130>
			if (h < 0){//east point
  801f64:	e0bffb17 	ldw	r2,-20(fp)
  801f68:	1000150e 	bge	r2,zero,801fc0 <print_empty_circle+0xc0>

				print_symmetry_dots_circle(x+1,y,x_centrum,y_centrum,rgb);
  801f6c:	e0bff917 	ldw	r2,-28(fp)
  801f70:	10800044 	addi	r2,r2,1
  801f74:	1009883a 	mov	r4,r2
  801f78:	e0fffa17 	ldw	r3,-24(fp)
  801f7c:	e0bfff17 	ldw	r2,-4(fp)
  801f80:	d8800015 	stw	r2,0(sp)
  801f84:	e1fffe17 	ldw	r7,-8(fp)
  801f88:	e1bffd17 	ldw	r6,-12(fp)
  801f8c:	180b883a 	mov	r5,r3
  801f90:	0801da80 	call	801da8 <print_symmetry_dots_circle>
				h = h +2*x +3;
  801f94:	e0bff917 	ldw	r2,-28(fp)
  801f98:	1085883a 	add	r2,r2,r2
  801f9c:	1007883a 	mov	r3,r2
  801fa0:	e0bffb17 	ldw	r2,-20(fp)
  801fa4:	1885883a 	add	r2,r3,r2
  801fa8:	108000c4 	addi	r2,r2,3
  801fac:	e0bffb15 	stw	r2,-20(fp)
				x= x+1;
  801fb0:	e0bff917 	ldw	r2,-28(fp)
  801fb4:	10800044 	addi	r2,r2,1
  801fb8:	e0bff915 	stw	r2,-28(fp)
  801fbc:	00001c06 	br	802030 <print_empty_circle+0x130>

			}
			else{
				print_symmetry_dots_circle(x+1,y-1,x_centrum,y_centrum,rgb);
  801fc0:	e0bff917 	ldw	r2,-28(fp)
  801fc4:	10800044 	addi	r2,r2,1
  801fc8:	1007883a 	mov	r3,r2
  801fcc:	e0bffa17 	ldw	r2,-24(fp)
  801fd0:	10bfffc4 	addi	r2,r2,-1
  801fd4:	1009883a 	mov	r4,r2
  801fd8:	e0bfff17 	ldw	r2,-4(fp)
  801fdc:	d8800015 	stw	r2,0(sp)
  801fe0:	e1fffe17 	ldw	r7,-8(fp)
  801fe4:	e1bffd17 	ldw	r6,-12(fp)
  801fe8:	200b883a 	mov	r5,r4
  801fec:	1809883a 	mov	r4,r3
  801ff0:	0801da80 	call	801da8 <print_symmetry_dots_circle>
				h= h+2*(x-y)+5;
  801ff4:	e0fff917 	ldw	r3,-28(fp)
  801ff8:	e0bffa17 	ldw	r2,-24(fp)
  801ffc:	1885c83a 	sub	r2,r3,r2
  802000:	1085883a 	add	r2,r2,r2
  802004:	1007883a 	mov	r3,r2
  802008:	e0bffb17 	ldw	r2,-20(fp)
  80200c:	1885883a 	add	r2,r3,r2
  802010:	10800144 	addi	r2,r2,5
  802014:	e0bffb15 	stw	r2,-20(fp)
				y=y-1;
  802018:	e0bffa17 	ldw	r2,-24(fp)
  80201c:	10bfffc4 	addi	r2,r2,-1
  802020:	e0bffa15 	stw	r2,-24(fp)
				x=x+1;
  802024:	e0bff917 	ldw	r2,-28(fp)
  802028:	10800044 	addi	r2,r2,1
  80202c:	e0bff915 	stw	r2,-28(fp)
		int x = 0;
		int y = radie;

		print_symmetry_dots_circle(x,y,x_centrum,y_centrum,rgb);
		int h = 1- radie;
		while(y > x){
  802030:	e0bffa17 	ldw	r2,-24(fp)
  802034:	e0fff917 	ldw	r3,-28(fp)
  802038:	18bfca16 	blt	r3,r2,801f64 <__alt_data_end+0xff801f64>
				y=y-1;
				x=x+1;
			}

		}
}
  80203c:	0001883a 	nop
  802040:	e037883a 	mov	sp,fp
  802044:	dfc00117 	ldw	ra,4(sp)
  802048:	df000017 	ldw	fp,0(sp)
  80204c:	dec00204 	addi	sp,sp,8
  802050:	f800283a 	ret

00802054 <print_circle>:
void print_circle(alt_u32 radie, alt_u32 x_centrum, alt_u32 y_centrum, alt_u32 rgb)
{
  802054:	defff904 	addi	sp,sp,-28
  802058:	dfc00615 	stw	ra,24(sp)
  80205c:	df000515 	stw	fp,20(sp)
  802060:	df000504 	addi	fp,sp,20
  802064:	e13ffc15 	stw	r4,-16(fp)
  802068:	e17ffd15 	stw	r5,-12(fp)
  80206c:	e1bffe15 	stw	r6,-8(fp)
  802070:	e1ffff15 	stw	r7,-4(fp)
	unsigned int radius = radie;
  802074:	e0bffc17 	ldw	r2,-16(fp)
  802078:	e0bffb15 	stw	r2,-20(fp)

	for(radius = radie; radius > 0; radius--)
  80207c:	e0bffc17 	ldw	r2,-16(fp)
  802080:	e0bffb15 	stw	r2,-20(fp)
  802084:	00000806 	br	8020a8 <print_circle+0x54>
		print_empty_circle(radius,x_centrum, y_centrum, rgb);
  802088:	e1ffff17 	ldw	r7,-4(fp)
  80208c:	e1bffe17 	ldw	r6,-8(fp)
  802090:	e17ffd17 	ldw	r5,-12(fp)
  802094:	e13ffb17 	ldw	r4,-20(fp)
  802098:	0801f000 	call	801f00 <print_empty_circle>
}
void print_circle(alt_u32 radie, alt_u32 x_centrum, alt_u32 y_centrum, alt_u32 rgb)
{
	unsigned int radius = radie;

	for(radius = radie; radius > 0; radius--)
  80209c:	e0bffb17 	ldw	r2,-20(fp)
  8020a0:	10bfffc4 	addi	r2,r2,-1
  8020a4:	e0bffb15 	stw	r2,-20(fp)
  8020a8:	e0bffb17 	ldw	r2,-20(fp)
  8020ac:	103ff61e 	bne	r2,zero,802088 <__alt_data_end+0xff802088>
		print_empty_circle(radius,x_centrum, y_centrum, rgb);
}
  8020b0:	0001883a 	nop
  8020b4:	e037883a 	mov	sp,fp
  8020b8:	dfc00117 	ldw	ra,4(sp)
  8020bc:	df000017 	ldw	fp,0(sp)
  8020c0:	dec00204 	addi	sp,sp,8
  8020c4:	f800283a 	ret

008020c8 <clear_screen>:
void clear_screen(alt_u32 rgb){
  8020c8:	defffb04 	addi	sp,sp,-20
  8020cc:	dfc00415 	stw	ra,16(sp)
  8020d0:	df000315 	stw	fp,12(sp)
  8020d4:	df000304 	addi	fp,sp,12
  8020d8:	e13fff15 	stw	r4,-4(fp)
	for(int y = 0 ;y <240;y++)
  8020dc:	e03ffd15 	stw	zero,-12(fp)
  8020e0:	00001106 	br	802128 <clear_screen+0x60>
		for(int x = 0; x < 320; x++)
  8020e4:	e03ffe15 	stw	zero,-8(fp)
  8020e8:	00000906 	br	802110 <clear_screen+0x48>
			print_pix(x,y,rgb);
  8020ec:	e0bffe17 	ldw	r2,-8(fp)
  8020f0:	e0fffd17 	ldw	r3,-12(fp)
  8020f4:	e1bfff17 	ldw	r6,-4(fp)
  8020f8:	180b883a 	mov	r5,r3
  8020fc:	1009883a 	mov	r4,r2
  802100:	08019840 	call	801984 <print_pix>
	for(radius = radie; radius > 0; radius--)
		print_empty_circle(radius,x_centrum, y_centrum, rgb);
}
void clear_screen(alt_u32 rgb){
	for(int y = 0 ;y <240;y++)
		for(int x = 0; x < 320; x++)
  802104:	e0bffe17 	ldw	r2,-8(fp)
  802108:	10800044 	addi	r2,r2,1
  80210c:	e0bffe15 	stw	r2,-8(fp)
  802110:	e0bffe17 	ldw	r2,-8(fp)
  802114:	10805010 	cmplti	r2,r2,320
  802118:	103ff41e 	bne	r2,zero,8020ec <__alt_data_end+0xff8020ec>

	for(radius = radie; radius > 0; radius--)
		print_empty_circle(radius,x_centrum, y_centrum, rgb);
}
void clear_screen(alt_u32 rgb){
	for(int y = 0 ;y <240;y++)
  80211c:	e0bffd17 	ldw	r2,-12(fp)
  802120:	10800044 	addi	r2,r2,1
  802124:	e0bffd15 	stw	r2,-12(fp)
  802128:	e0bffd17 	ldw	r2,-12(fp)
  80212c:	10803c10 	cmplti	r2,r2,240
  802130:	103fec1e 	bne	r2,zero,8020e4 <__alt_data_end+0xff8020e4>
		for(int x = 0; x < 320; x++)
			print_pix(x,y,rgb);
}
  802134:	0001883a 	nop
  802138:	e037883a 	mov	sp,fp
  80213c:	dfc00117 	ldw	ra,4(sp)
  802140:	df000017 	ldw	fp,0(sp)
  802144:	dec00204 	addi	sp,sp,8
  802148:	f800283a 	ret

0080214c <read_pixel_ram_int>:

pixel_data read_pixel_ram_int(alt_u32 x_start, alt_u32 y_start)
{
  80214c:	defffb04 	addi	sp,sp,-20
  802150:	dfc00415 	stw	ra,16(sp)
  802154:	df000315 	stw	fp,12(sp)
  802158:	df000304 	addi	fp,sp,12
  80215c:	e13ffe15 	stw	r4,-8(fp)
  802160:	e17fff15 	stw	r5,-4(fp)
	alt_u32 i = read_pixel(x_start, y_start);
  802164:	01405004 	movi	r5,320
  802168:	e13fff17 	ldw	r4,-4(fp)
  80216c:	080240c0 	call	80240c <__mulsi3>
  802170:	1007883a 	mov	r3,r2
  802174:	e0bffe17 	ldw	r2,-8(fp)
  802178:	1885883a 	add	r2,r3,r2
  80217c:	1085883a 	add	r2,r2,r2
  802180:	1085883a 	add	r2,r2,r2
  802184:	1007883a 	mov	r3,r2
  802188:	00804034 	movhi	r2,256
  80218c:	1885883a 	add	r2,r3,r2
  802190:	10800037 	ldwio	r2,0(r2)
  802194:	e0bffd15 	stw	r2,-12(fp)
	return (alt_u8) i;
  802198:	e0bffd17 	ldw	r2,-12(fp)
}
  80219c:	e037883a 	mov	sp,fp
  8021a0:	dfc00117 	ldw	ra,4(sp)
  8021a4:	df000017 	ldw	fp,0(sp)
  8021a8:	dec00204 	addi	sp,sp,8
  8021ac:	f800283a 	ret

008021b0 <print_welcome_screen>:



void print_welcome_screen(){
  8021b0:	defffd04 	addi	sp,sp,-12
  8021b4:	dfc00215 	stw	ra,8(sp)
  8021b8:	df000115 	stw	fp,4(sp)
  8021bc:	df000104 	addi	fp,sp,4
	clear_screen(0);
  8021c0:	0009883a 	mov	r4,zero
  8021c4:	08020c80 	call	8020c8 <clear_screen>

	print_circle(10,  320/2, 240/2, 3);
  8021c8:	01c000c4 	movi	r7,3
  8021cc:	01801e04 	movi	r6,120
  8021d0:	01402804 	movi	r5,160
  8021d4:	01000284 	movi	r4,10
  8021d8:	08020540 	call	802054 <print_circle>
	print_str(50,50,2,"Welcome to measurement station!");
  8021dc:	01c02034 	movhi	r7,128
  8021e0:	39ce1004 	addi	r7,r7,14400
  8021e4:	01800084 	movi	r6,2
  8021e8:	01400c84 	movi	r5,50
  8021ec:	01000c84 	movi	r4,50
  8021f0:	0801d000 	call	801d00 <print_str>
	print_str(50,150,2,"Press any key to continue");
  8021f4:	01c02034 	movhi	r7,128
  8021f8:	39ce1804 	addi	r7,r7,14432
  8021fc:	01800084 	movi	r6,2
  802200:	01402584 	movi	r5,150
  802204:	01000c84 	movi	r4,50
  802208:	0801d000 	call	801d00 <print_str>
	alt_u32 key = 0;
  80220c:	e03fff15 	stw	zero,-4(fp)
	key = IORD_32DIRECT(KEY_INPUT_BASE,0);
  802210:	00804234 	movhi	r2,264
  802214:	10848804 	addi	r2,r2,4640
  802218:	10800037 	ldwio	r2,0(r2)
  80221c:	e0bfff15 	stw	r2,-4(fp)
	//alt_printf("key = %d", key);
	while(key == 7)
  802220:	00000406 	br	802234 <print_welcome_screen+0x84>
		key = IORD_32DIRECT(KEY_INPUT_BASE,0);
  802224:	00804234 	movhi	r2,264
  802228:	10848804 	addi	r2,r2,4640
  80222c:	10800037 	ldwio	r2,0(r2)
  802230:	e0bfff15 	stw	r2,-4(fp)
	print_str(50,50,2,"Welcome to measurement station!");
	print_str(50,150,2,"Press any key to continue");
	alt_u32 key = 0;
	key = IORD_32DIRECT(KEY_INPUT_BASE,0);
	//alt_printf("key = %d", key);
	while(key == 7)
  802234:	e0bfff17 	ldw	r2,-4(fp)
  802238:	108001e0 	cmpeqi	r2,r2,7
  80223c:	103ff91e 	bne	r2,zero,802224 <__alt_data_end+0xff802224>
		key = IORD_32DIRECT(KEY_INPUT_BASE,0);


}
  802240:	0001883a 	nop
  802244:	e037883a 	mov	sp,fp
  802248:	dfc00117 	ldw	ra,4(sp)
  80224c:	df000017 	ldw	fp,0(sp)
  802250:	dec00204 	addi	sp,sp,8
  802254:	f800283a 	ret

00802258 <__divsi3>:
  802258:	20001b16 	blt	r4,zero,8022c8 <__divsi3+0x70>
  80225c:	000f883a 	mov	r7,zero
  802260:	28001616 	blt	r5,zero,8022bc <__divsi3+0x64>
  802264:	200d883a 	mov	r6,r4
  802268:	29001a2e 	bgeu	r5,r4,8022d4 <__divsi3+0x7c>
  80226c:	00800804 	movi	r2,32
  802270:	00c00044 	movi	r3,1
  802274:	00000106 	br	80227c <__divsi3+0x24>
  802278:	10000d26 	beq	r2,zero,8022b0 <__divsi3+0x58>
  80227c:	294b883a 	add	r5,r5,r5
  802280:	10bfffc4 	addi	r2,r2,-1
  802284:	18c7883a 	add	r3,r3,r3
  802288:	293ffb36 	bltu	r5,r4,802278 <__alt_data_end+0xff802278>
  80228c:	0005883a 	mov	r2,zero
  802290:	18000726 	beq	r3,zero,8022b0 <__divsi3+0x58>
  802294:	0005883a 	mov	r2,zero
  802298:	31400236 	bltu	r6,r5,8022a4 <__divsi3+0x4c>
  80229c:	314dc83a 	sub	r6,r6,r5
  8022a0:	10c4b03a 	or	r2,r2,r3
  8022a4:	1806d07a 	srli	r3,r3,1
  8022a8:	280ad07a 	srli	r5,r5,1
  8022ac:	183ffa1e 	bne	r3,zero,802298 <__alt_data_end+0xff802298>
  8022b0:	38000126 	beq	r7,zero,8022b8 <__divsi3+0x60>
  8022b4:	0085c83a 	sub	r2,zero,r2
  8022b8:	f800283a 	ret
  8022bc:	014bc83a 	sub	r5,zero,r5
  8022c0:	39c0005c 	xori	r7,r7,1
  8022c4:	003fe706 	br	802264 <__alt_data_end+0xff802264>
  8022c8:	0109c83a 	sub	r4,zero,r4
  8022cc:	01c00044 	movi	r7,1
  8022d0:	003fe306 	br	802260 <__alt_data_end+0xff802260>
  8022d4:	00c00044 	movi	r3,1
  8022d8:	003fee06 	br	802294 <__alt_data_end+0xff802294>

008022dc <__modsi3>:
  8022dc:	20001716 	blt	r4,zero,80233c <__modsi3+0x60>
  8022e0:	000f883a 	mov	r7,zero
  8022e4:	2005883a 	mov	r2,r4
  8022e8:	28001216 	blt	r5,zero,802334 <__modsi3+0x58>
  8022ec:	2900162e 	bgeu	r5,r4,802348 <__modsi3+0x6c>
  8022f0:	01800804 	movi	r6,32
  8022f4:	00c00044 	movi	r3,1
  8022f8:	00000106 	br	802300 <__modsi3+0x24>
  8022fc:	30000a26 	beq	r6,zero,802328 <__modsi3+0x4c>
  802300:	294b883a 	add	r5,r5,r5
  802304:	31bfffc4 	addi	r6,r6,-1
  802308:	18c7883a 	add	r3,r3,r3
  80230c:	293ffb36 	bltu	r5,r4,8022fc <__alt_data_end+0xff8022fc>
  802310:	18000526 	beq	r3,zero,802328 <__modsi3+0x4c>
  802314:	1806d07a 	srli	r3,r3,1
  802318:	11400136 	bltu	r2,r5,802320 <__modsi3+0x44>
  80231c:	1145c83a 	sub	r2,r2,r5
  802320:	280ad07a 	srli	r5,r5,1
  802324:	183ffb1e 	bne	r3,zero,802314 <__alt_data_end+0xff802314>
  802328:	38000126 	beq	r7,zero,802330 <__modsi3+0x54>
  80232c:	0085c83a 	sub	r2,zero,r2
  802330:	f800283a 	ret
  802334:	014bc83a 	sub	r5,zero,r5
  802338:	003fec06 	br	8022ec <__alt_data_end+0xff8022ec>
  80233c:	0109c83a 	sub	r4,zero,r4
  802340:	01c00044 	movi	r7,1
  802344:	003fe706 	br	8022e4 <__alt_data_end+0xff8022e4>
  802348:	00c00044 	movi	r3,1
  80234c:	003ff106 	br	802314 <__alt_data_end+0xff802314>

00802350 <__udivsi3>:
  802350:	200d883a 	mov	r6,r4
  802354:	2900152e 	bgeu	r5,r4,8023ac <__udivsi3+0x5c>
  802358:	28001416 	blt	r5,zero,8023ac <__udivsi3+0x5c>
  80235c:	00800804 	movi	r2,32
  802360:	00c00044 	movi	r3,1
  802364:	00000206 	br	802370 <__udivsi3+0x20>
  802368:	10000e26 	beq	r2,zero,8023a4 <__udivsi3+0x54>
  80236c:	28000516 	blt	r5,zero,802384 <__udivsi3+0x34>
  802370:	294b883a 	add	r5,r5,r5
  802374:	10bfffc4 	addi	r2,r2,-1
  802378:	18c7883a 	add	r3,r3,r3
  80237c:	293ffa36 	bltu	r5,r4,802368 <__alt_data_end+0xff802368>
  802380:	18000826 	beq	r3,zero,8023a4 <__udivsi3+0x54>
  802384:	0005883a 	mov	r2,zero
  802388:	31400236 	bltu	r6,r5,802394 <__udivsi3+0x44>
  80238c:	314dc83a 	sub	r6,r6,r5
  802390:	10c4b03a 	or	r2,r2,r3
  802394:	1806d07a 	srli	r3,r3,1
  802398:	280ad07a 	srli	r5,r5,1
  80239c:	183ffa1e 	bne	r3,zero,802388 <__alt_data_end+0xff802388>
  8023a0:	f800283a 	ret
  8023a4:	0005883a 	mov	r2,zero
  8023a8:	f800283a 	ret
  8023ac:	00c00044 	movi	r3,1
  8023b0:	003ff406 	br	802384 <__alt_data_end+0xff802384>

008023b4 <__umodsi3>:
  8023b4:	2005883a 	mov	r2,r4
  8023b8:	2900122e 	bgeu	r5,r4,802404 <__umodsi3+0x50>
  8023bc:	28001116 	blt	r5,zero,802404 <__umodsi3+0x50>
  8023c0:	01800804 	movi	r6,32
  8023c4:	00c00044 	movi	r3,1
  8023c8:	00000206 	br	8023d4 <__umodsi3+0x20>
  8023cc:	30000c26 	beq	r6,zero,802400 <__umodsi3+0x4c>
  8023d0:	28000516 	blt	r5,zero,8023e8 <__umodsi3+0x34>
  8023d4:	294b883a 	add	r5,r5,r5
  8023d8:	31bfffc4 	addi	r6,r6,-1
  8023dc:	18c7883a 	add	r3,r3,r3
  8023e0:	293ffa36 	bltu	r5,r4,8023cc <__alt_data_end+0xff8023cc>
  8023e4:	18000626 	beq	r3,zero,802400 <__umodsi3+0x4c>
  8023e8:	1806d07a 	srli	r3,r3,1
  8023ec:	11400136 	bltu	r2,r5,8023f4 <__umodsi3+0x40>
  8023f0:	1145c83a 	sub	r2,r2,r5
  8023f4:	280ad07a 	srli	r5,r5,1
  8023f8:	183ffb1e 	bne	r3,zero,8023e8 <__alt_data_end+0xff8023e8>
  8023fc:	f800283a 	ret
  802400:	f800283a 	ret
  802404:	00c00044 	movi	r3,1
  802408:	003ff706 	br	8023e8 <__alt_data_end+0xff8023e8>

0080240c <__mulsi3>:
  80240c:	0005883a 	mov	r2,zero
  802410:	20000726 	beq	r4,zero,802430 <__mulsi3+0x24>
  802414:	20c0004c 	andi	r3,r4,1
  802418:	2008d07a 	srli	r4,r4,1
  80241c:	18000126 	beq	r3,zero,802424 <__mulsi3+0x18>
  802420:	1145883a 	add	r2,r2,r5
  802424:	294b883a 	add	r5,r5,r5
  802428:	203ffa1e 	bne	r4,zero,802414 <__alt_data_end+0xff802414>
  80242c:	f800283a 	ret
  802430:	f800283a 	ret

00802434 <__fixsfsi>:
  802434:	200ad5fa 	srli	r5,r4,23
  802438:	00c02034 	movhi	r3,128
  80243c:	18ffffc4 	addi	r3,r3,-1
  802440:	29403fcc 	andi	r5,r5,255
  802444:	00801f84 	movi	r2,126
  802448:	1906703a 	and	r3,r3,r4
  80244c:	2008d7fa 	srli	r4,r4,31
  802450:	11400e0e 	bge	r2,r5,80248c <__fixsfsi+0x58>
  802454:	00802744 	movi	r2,157
  802458:	11400816 	blt	r2,r5,80247c <__fixsfsi+0x48>
  80245c:	00802544 	movi	r2,149
  802460:	18c02034 	orhi	r3,r3,128
  802464:	11400b0e 	bge	r2,r5,802494 <__fixsfsi+0x60>
  802468:	28bfda84 	addi	r2,r5,-150
  80246c:	1884983a 	sll	r2,r3,r2
  802470:	20000726 	beq	r4,zero,802490 <__fixsfsi+0x5c>
  802474:	0085c83a 	sub	r2,zero,r2
  802478:	f800283a 	ret
  80247c:	00a00034 	movhi	r2,32768
  802480:	10bfffc4 	addi	r2,r2,-1
  802484:	2085883a 	add	r2,r4,r2
  802488:	f800283a 	ret
  80248c:	0005883a 	mov	r2,zero
  802490:	f800283a 	ret
  802494:	00802584 	movi	r2,150
  802498:	1145c83a 	sub	r2,r2,r5
  80249c:	1884d83a 	srl	r2,r3,r2
  8024a0:	003ff306 	br	802470 <__alt_data_end+0xff802470>

008024a4 <memcpy>:
  8024a4:	2005883a 	mov	r2,r4
  8024a8:	2007883a 	mov	r3,r4
  8024ac:	218d883a 	add	r6,r4,r6
  8024b0:	19800526 	beq	r3,r6,8024c8 <memcpy+0x24>
  8024b4:	29000003 	ldbu	r4,0(r5)
  8024b8:	18c00044 	addi	r3,r3,1
  8024bc:	29400044 	addi	r5,r5,1
  8024c0:	193fffc5 	stb	r4,-1(r3)
  8024c4:	003ffa06 	br	8024b0 <__alt_data_end+0xff8024b0>
  8024c8:	f800283a 	ret

008024cc <memset>:
  8024cc:	2005883a 	mov	r2,r4
  8024d0:	2007883a 	mov	r3,r4
  8024d4:	218d883a 	add	r6,r4,r6
  8024d8:	19800326 	beq	r3,r6,8024e8 <memset+0x1c>
  8024dc:	19400005 	stb	r5,0(r3)
  8024e0:	18c00044 	addi	r3,r3,1
  8024e4:	003ffc06 	br	8024d8 <__alt_data_end+0xff8024d8>
  8024e8:	f800283a 	ret

008024ec <strlen>:
  8024ec:	2005883a 	mov	r2,r4
  8024f0:	10c00007 	ldb	r3,0(r2)
  8024f4:	18000226 	beq	r3,zero,802500 <strlen+0x14>
  8024f8:	10800044 	addi	r2,r2,1
  8024fc:	003ffc06 	br	8024f0 <__alt_data_end+0xff8024f0>
  802500:	1105c83a 	sub	r2,r2,r4
  802504:	f800283a 	ret

00802508 <alt_load>:
  802508:	deffff04 	addi	sp,sp,-4
  80250c:	01002034 	movhi	r4,128
  802510:	01402034 	movhi	r5,128
  802514:	dfc00015 	stw	ra,0(sp)
  802518:	210e3004 	addi	r4,r4,14528
  80251c:	294ef704 	addi	r5,r5,15324
  802520:	2140061e 	bne	r4,r5,80253c <alt_load+0x34>
  802524:	01002034 	movhi	r4,128
  802528:	01402034 	movhi	r5,128
  80252c:	21000804 	addi	r4,r4,32
  802530:	29400804 	addi	r5,r5,32
  802534:	2140121e 	bne	r4,r5,802580 <alt_load+0x78>
  802538:	00000b06 	br	802568 <alt_load+0x60>
  80253c:	00c02034 	movhi	r3,128
  802540:	18cef704 	addi	r3,r3,15324
  802544:	1907c83a 	sub	r3,r3,r4
  802548:	0005883a 	mov	r2,zero
  80254c:	10fff526 	beq	r2,r3,802524 <__alt_data_end+0xff802524>
  802550:	114f883a 	add	r7,r2,r5
  802554:	39c00017 	ldw	r7,0(r7)
  802558:	110d883a 	add	r6,r2,r4
  80255c:	10800104 	addi	r2,r2,4
  802560:	31c00015 	stw	r7,0(r6)
  802564:	003ff906 	br	80254c <__alt_data_end+0xff80254c>
  802568:	01002034 	movhi	r4,128
  80256c:	01402034 	movhi	r5,128
  802570:	210d0304 	addi	r4,r4,13324
  802574:	294d0304 	addi	r5,r5,13324
  802578:	2140101e 	bne	r4,r5,8025bc <alt_load+0xb4>
  80257c:	00000b06 	br	8025ac <alt_load+0xa4>
  802580:	00c02034 	movhi	r3,128
  802584:	18c06004 	addi	r3,r3,384
  802588:	1907c83a 	sub	r3,r3,r4
  80258c:	0005883a 	mov	r2,zero
  802590:	10fff526 	beq	r2,r3,802568 <__alt_data_end+0xff802568>
  802594:	114f883a 	add	r7,r2,r5
  802598:	39c00017 	ldw	r7,0(r7)
  80259c:	110d883a 	add	r6,r2,r4
  8025a0:	10800104 	addi	r2,r2,4
  8025a4:	31c00015 	stw	r7,0(r6)
  8025a8:	003ff906 	br	802590 <__alt_data_end+0xff802590>
  8025ac:	0802b540 	call	802b54 <alt_dcache_flush_all>
  8025b0:	dfc00017 	ldw	ra,0(sp)
  8025b4:	dec00104 	addi	sp,sp,4
  8025b8:	0802c4c1 	jmpi	802c4c <alt_icache_flush_all>
  8025bc:	00c02034 	movhi	r3,128
  8025c0:	18ce3004 	addi	r3,r3,14528
  8025c4:	1907c83a 	sub	r3,r3,r4
  8025c8:	0005883a 	mov	r2,zero
  8025cc:	18bff726 	beq	r3,r2,8025ac <__alt_data_end+0xff8025ac>
  8025d0:	114f883a 	add	r7,r2,r5
  8025d4:	39c00017 	ldw	r7,0(r7)
  8025d8:	110d883a 	add	r6,r2,r4
  8025dc:	10800104 	addi	r2,r2,4
  8025e0:	31c00015 	stw	r7,0(r6)
  8025e4:	003ff906 	br	8025cc <__alt_data_end+0xff8025cc>

008025e8 <alt_main>:
  8025e8:	defffe04 	addi	sp,sp,-8
  8025ec:	0009883a 	mov	r4,zero
  8025f0:	dfc00115 	stw	ra,4(sp)
  8025f4:	dc000015 	stw	r16,0(sp)
  8025f8:	08026380 	call	802638 <alt_irq_init>
  8025fc:	08026580 	call	802658 <alt_sys_init>
  802600:	01802034 	movhi	r6,128
  802604:	318e1f04 	addi	r6,r6,14460
  802608:	300b883a 	mov	r5,r6
  80260c:	3009883a 	mov	r4,r6
  802610:	0802ddc0 	call	802ddc <alt_io_redirect>
  802614:	d1a0d617 	ldw	r6,-31912(gp)
  802618:	d160d717 	ldw	r5,-31908(gp)
  80261c:	d120d817 	ldw	r4,-31904(gp)
  802620:	08001bc0 	call	8001bc <main>
  802624:	01000044 	movi	r4,1
  802628:	1021883a 	mov	r16,r2
  80262c:	0802a8c0 	call	802a8c <close>
  802630:	8009883a 	mov	r4,r16
  802634:	08032180 	call	803218 <exit>

00802638 <alt_irq_init>:
  802638:	deffff04 	addi	sp,sp,-4
  80263c:	dfc00015 	stw	ra,0(sp)
  802640:	08030640 	call	803064 <altera_nios2_gen2_irq_init>
  802644:	00800044 	movi	r2,1
  802648:	1001703a 	wrctl	status,r2
  80264c:	dfc00017 	ldw	ra,0(sp)
  802650:	dec00104 	addi	sp,sp,4
  802654:	f800283a 	ret

00802658 <alt_sys_init>:
  802658:	01402034 	movhi	r5,128
  80265c:	01002034 	movhi	r4,128
  802660:	deffff04 	addi	sp,sp,-4
  802664:	294eef04 	addi	r5,r5,15292
  802668:	210e3f04 	addi	r4,r4,14588
  80266c:	dfc00015 	stw	ra,0(sp)
  802670:	0802b600 	call	802b60 <alt_dev_llist_insert>
  802674:	01bfffc4 	movi	r6,-1
  802678:	01002034 	movhi	r4,128
  80267c:	300b883a 	mov	r5,r6
  802680:	210e3004 	addi	r4,r4,14528
  802684:	dfc00017 	ldw	ra,0(sp)
  802688:	dec00104 	addi	sp,sp,4
  80268c:	08028601 	jmpi	802860 <altera_modular_adc_init>

00802690 <altera_avalon_jtag_uart_read_fd>:
  802690:	20800017 	ldw	r2,0(r4)
  802694:	21c00217 	ldw	r7,8(r4)
  802698:	11000a04 	addi	r4,r2,40
  80269c:	08026b01 	jmpi	8026b0 <altera_avalon_jtag_uart_read>

008026a0 <altera_avalon_jtag_uart_write_fd>:
  8026a0:	20800017 	ldw	r2,0(r4)
  8026a4:	21c00217 	ldw	r7,8(r4)
  8026a8:	11000a04 	addi	r4,r2,40
  8026ac:	080270c1 	jmpi	80270c <altera_avalon_jtag_uart_write>

008026b0 <altera_avalon_jtag_uart_read>:
  8026b0:	21000017 	ldw	r4,0(r4)
  8026b4:	298d883a 	add	r6,r5,r6
  8026b8:	2805883a 	mov	r2,r5
  8026bc:	3a10000c 	andi	r8,r7,16384
  8026c0:	11800b2e 	bgeu	r2,r6,8026f0 <altera_avalon_jtag_uart_read+0x40>
  8026c4:	20c00037 	ldwio	r3,0(r4)
  8026c8:	1a60000c 	andi	r9,r3,32768
  8026cc:	48000326 	beq	r9,zero,8026dc <altera_avalon_jtag_uart_read+0x2c>
  8026d0:	10c00005 	stb	r3,0(r2)
  8026d4:	10800044 	addi	r2,r2,1
  8026d8:	003ff906 	br	8026c0 <__alt_data_end+0xff8026c0>
  8026dc:	11400226 	beq	r2,r5,8026e8 <altera_avalon_jtag_uart_read+0x38>
  8026e0:	1145c83a 	sub	r2,r2,r5
  8026e4:	f800283a 	ret
  8026e8:	403ff526 	beq	r8,zero,8026c0 <__alt_data_end+0xff8026c0>
  8026ec:	00000106 	br	8026f4 <altera_avalon_jtag_uart_read+0x44>
  8026f0:	117ffb1e 	bne	r2,r5,8026e0 <__alt_data_end+0xff8026e0>
  8026f4:	39d0000c 	andi	r7,r7,16384
  8026f8:	3800021e 	bne	r7,zero,802704 <altera_avalon_jtag_uart_read+0x54>
  8026fc:	00bffec4 	movi	r2,-5
  802700:	f800283a 	ret
  802704:	00bffd44 	movi	r2,-11
  802708:	f800283a 	ret

0080270c <altera_avalon_jtag_uart_write>:
  80270c:	21000017 	ldw	r4,0(r4)
  802710:	3005883a 	mov	r2,r6
  802714:	298d883a 	add	r6,r5,r6
  802718:	21c00104 	addi	r7,r4,4
  80271c:	2980072e 	bgeu	r5,r6,80273c <altera_avalon_jtag_uart_write+0x30>
  802720:	38c00037 	ldwio	r3,0(r7)
  802724:	18ffffec 	andhi	r3,r3,65535
  802728:	183ffc26 	beq	r3,zero,80271c <__alt_data_end+0xff80271c>
  80272c:	28c00007 	ldb	r3,0(r5)
  802730:	20c00035 	stwio	r3,0(r4)
  802734:	29400044 	addi	r5,r5,1
  802738:	003ff806 	br	80271c <__alt_data_end+0xff80271c>
  80273c:	f800283a 	ret

00802740 <alt_avalon_spi_command>:
  802740:	d8800017 	ldw	r2,0(sp)
  802744:	da000117 	ldw	r8,4(sp)
  802748:	00c00044 	movi	r3,1
  80274c:	da400217 	ldw	r9,8(sp)
  802750:	194a983a 	sll	r5,r3,r5
  802754:	399d883a 	add	r14,r7,r6
  802758:	409f883a 	add	r15,r8,r2
  80275c:	21400535 	stwio	r5,20(r4)
  802760:	48c0008c 	andi	r3,r9,2
  802764:	1800021e 	bne	r3,zero,802770 <alt_avalon_spi_command+0x30>
  802768:	00c10004 	movi	r3,1024
  80276c:	20c00335 	stwio	r3,12(r4)
  802770:	20c00037 	ldwio	r3,0(r4)
  802774:	00c00044 	movi	r3,1
  802778:	1015883a 	mov	r10,r2
  80277c:	22c00204 	addi	r11,r4,8
  802780:	23000104 	addi	r12,r4,4
  802784:	59400037 	ldwio	r5,0(r11)
  802788:	2b40100c 	andi	r13,r5,64
  80278c:	2940200c 	andi	r5,r5,128
  802790:	68000126 	beq	r13,zero,802798 <alt_avalon_spi_command+0x58>
  802794:	1800031e 	bne	r3,zero,8027a4 <alt_avalon_spi_command+0x64>
  802798:	283ffa26 	beq	r5,zero,802784 <__alt_data_end+0xff802784>
  80279c:	68000e26 	beq	r13,zero,8027d8 <alt_avalon_spi_command+0x98>
  8027a0:	00001e06 	br	80281c <alt_avalon_spi_command+0xdc>
  8027a4:	00c00c0e 	bge	zero,r3,8027d8 <alt_avalon_spi_command+0x98>
  8027a8:	18ffffc4 	addi	r3,r3,-1
  8027ac:	3b80052e 	bgeu	r7,r14,8027c4 <alt_avalon_spi_command+0x84>
  8027b0:	3b400044 	addi	r13,r7,1
  8027b4:	39c00003 	ldbu	r7,0(r7)
  8027b8:	61c00035 	stwio	r7,0(r12)
  8027bc:	680f883a 	mov	r7,r13
  8027c0:	00000506 	br	8027d8 <alt_avalon_spi_command+0x98>
  8027c4:	50000326 	beq	r10,zero,8027d4 <alt_avalon_spi_command+0x94>
  8027c8:	52bfffc4 	addi	r10,r10,-1
  8027cc:	60000035 	stwio	zero,0(r12)
  8027d0:	00000106 	br	8027d8 <alt_avalon_spi_command+0x98>
  8027d4:	00ff0004 	movi	r3,-1024
  8027d8:	283fea26 	beq	r5,zero,802784 <__alt_data_end+0xff802784>
  8027dc:	21400037 	ldwio	r5,0(r4)
  8027e0:	30000226 	beq	r6,zero,8027ec <alt_avalon_spi_command+0xac>
  8027e4:	31bfffc4 	addi	r6,r6,-1
  8027e8:	00000206 	br	8027f4 <alt_avalon_spi_command+0xb4>
  8027ec:	41400005 	stb	r5,0(r8)
  8027f0:	42000044 	addi	r8,r8,1
  8027f4:	18c00044 	addi	r3,r3,1
  8027f8:	303fe21e 	bne	r6,zero,802784 <__alt_data_end+0xff802784>
  8027fc:	43ffe11e 	bne	r8,r15,802784 <__alt_data_end+0xff802784>
  802800:	58c00037 	ldwio	r3,0(r11)
  802804:	18c0080c 	andi	r3,r3,32
  802808:	183ffd26 	beq	r3,zero,802800 <__alt_data_end+0xff802800>
  80280c:	4a40004c 	andi	r9,r9,1
  802810:	4800041e 	bne	r9,zero,802824 <alt_avalon_spi_command+0xe4>
  802814:	20000335 	stwio	zero,12(r4)
  802818:	f800283a 	ret
  80281c:	00ffef0e 	bge	zero,r3,8027dc <__alt_data_end+0xff8027dc>
  802820:	003fe106 	br	8027a8 <__alt_data_end+0xff8027a8>
  802824:	f800283a 	ret

00802828 <alt_adc_word_read>:
  802828:	28000b26 	beq	r5,zero,802858 <alt_adc_word_read+0x30>
  80282c:	0005883a 	mov	r2,zero
  802830:	2149c83a 	sub	r4,r4,r5
  802834:	11800626 	beq	r2,r6,802850 <alt_adc_word_read+0x28>
  802838:	2907883a 	add	r3,r5,r4
  80283c:	18c00037 	ldwio	r3,0(r3)
  802840:	28c00015 	stw	r3,0(r5)
  802844:	10800044 	addi	r2,r2,1
  802848:	29400104 	addi	r5,r5,4
  80284c:	003ff906 	br	802834 <__alt_data_end+0xff802834>
  802850:	0005883a 	mov	r2,zero
  802854:	f800283a 	ret
  802858:	00bffa84 	movi	r2,-22
  80285c:	f800283a 	ret

00802860 <altera_modular_adc_init>:
  802860:	defffb04 	addi	sp,sp,-20
  802864:	dc000115 	stw	r16,4(sp)
  802868:	2821883a 	mov	r16,r5
  80286c:	d1600004 	addi	r5,gp,-32768
  802870:	dc800315 	stw	r18,12(sp)
  802874:	dc400215 	stw	r17,8(sp)
  802878:	dfc00415 	stw	ra,16(sp)
  80287c:	2025883a 	mov	r18,r4
  802880:	3023883a 	mov	r17,r6
  802884:	0802b600 	call	802b60 <alt_dev_llist_insert>
  802888:	80000816 	blt	r16,zero,8028ac <altera_modular_adc_init+0x4c>
  80288c:	88000716 	blt	r17,zero,8028ac <altera_modular_adc_init+0x4c>
  802890:	01802034 	movhi	r6,128
  802894:	d8000015 	stw	zero,0(sp)
  802898:	900f883a 	mov	r7,r18
  80289c:	318a6f04 	addi	r6,r6,10684
  8028a0:	880b883a 	mov	r5,r17
  8028a4:	8009883a 	mov	r4,r16
  8028a8:	0802c500 	call	802c50 <alt_ic_isr_register>
  8028ac:	dfc00417 	ldw	ra,16(sp)
  8028b0:	dc800317 	ldw	r18,12(sp)
  8028b4:	dc400217 	ldw	r17,8(sp)
  8028b8:	dc000117 	ldw	r16,4(sp)
  8028bc:	dec00504 	addi	sp,sp,20
  8028c0:	f800283a 	ret

008028c4 <altera_modular_adc_open>:
  8028c4:	d1600004 	addi	r5,gp,-32768
  8028c8:	0802bd81 	jmpi	802bd8 <alt_find_dev>

008028cc <adc_stop>:
  8028cc:	20c00037 	ldwio	r3,0(r4)
  8028d0:	00bfff84 	movi	r2,-2
  8028d4:	1884703a 	and	r2,r3,r2
  8028d8:	20800035 	stwio	r2,0(r4)
  8028dc:	20800037 	ldwio	r2,0(r4)
  8028e0:	1080004c 	andi	r2,r2,1
  8028e4:	103ffd1e 	bne	r2,zero,8028dc <__alt_data_end+0xff8028dc>
  8028e8:	f800283a 	ret

008028ec <adc_start>:
  8028ec:	20800037 	ldwio	r2,0(r4)
  8028f0:	10800054 	ori	r2,r2,1
  8028f4:	20800035 	stwio	r2,0(r4)
  8028f8:	f800283a 	ret

008028fc <adc_set_mode_run_once>:
  8028fc:	20c00037 	ldwio	r3,0(r4)
  802900:	00bffc44 	movi	r2,-15
  802904:	1884703a 	and	r2,r3,r2
  802908:	10800094 	ori	r2,r2,2
  80290c:	20800035 	stwio	r2,0(r4)
  802910:	f800283a 	ret

00802914 <adc_set_mode_run_continuously>:
  802914:	20c00037 	ldwio	r3,0(r4)
  802918:	00bffc44 	movi	r2,-15
  80291c:	1884703a 	and	r2,r3,r2
  802920:	20800035 	stwio	r2,0(r4)
  802924:	f800283a 	ret

00802928 <adc_recalibrate>:
  802928:	defffd04 	addi	sp,sp,-12
  80292c:	dc000015 	stw	r16,0(sp)
  802930:	2021883a 	mov	r16,r4
  802934:	dfc00215 	stw	ra,8(sp)
  802938:	dc400115 	stw	r17,4(sp)
  80293c:	24400037 	ldwio	r17,0(r4)
  802940:	08028cc0 	call	8028cc <adc_stop>
  802944:	80800037 	ldwio	r2,0(r16)
  802948:	10800394 	ori	r2,r2,14
  80294c:	80800035 	stwio	r2,0(r16)
  802950:	8009883a 	mov	r4,r16
  802954:	08028ec0 	call	8028ec <adc_start>
  802958:	80800037 	ldwio	r2,0(r16)
  80295c:	1080004c 	andi	r2,r2,1
  802960:	103ffd1e 	bne	r2,zero,802958 <__alt_data_end+0xff802958>
  802964:	84400035 	stwio	r17,0(r16)
  802968:	dfc00217 	ldw	ra,8(sp)
  80296c:	dc400117 	ldw	r17,4(sp)
  802970:	dc000017 	ldw	r16,0(sp)
  802974:	dec00304 	addi	sp,sp,12
  802978:	f800283a 	ret

0080297c <adc_interrupt_enable>:
  80297c:	21004004 	addi	r4,r4,256
  802980:	20800037 	ldwio	r2,0(r4)
  802984:	10800054 	ori	r2,r2,1
  802988:	20800035 	stwio	r2,0(r4)
  80298c:	f800283a 	ret

00802990 <adc_interrupt_disable>:
  802990:	21004004 	addi	r4,r4,256
  802994:	20c00037 	ldwio	r3,0(r4)
  802998:	00bfff84 	movi	r2,-2
  80299c:	1884703a 	and	r2,r3,r2
  8029a0:	20800035 	stwio	r2,0(r4)
  8029a4:	f800283a 	ret

008029a8 <adc_clear_interrupt_status>:
  8029a8:	21004104 	addi	r4,r4,260
  8029ac:	20800037 	ldwio	r2,0(r4)
  8029b0:	10800054 	ori	r2,r2,1
  8029b4:	20800035 	stwio	r2,0(r4)
  8029b8:	f800283a 	ret

008029bc <alt_adc_irq>:
  8029bc:	20001426 	beq	r4,zero,802a10 <alt_adc_irq+0x54>
  8029c0:	defffd04 	addi	sp,sp,-12
  8029c4:	dc000015 	stw	r16,0(sp)
  8029c8:	2021883a 	mov	r16,r4
  8029cc:	dfc00215 	stw	ra,8(sp)
  8029d0:	dc400115 	stw	r17,4(sp)
  8029d4:	0023303a 	rdctl	r17,status
  8029d8:	00bfff84 	movi	r2,-2
  8029dc:	8884703a 	and	r2,r17,r2
  8029e0:	1001703a 	wrctl	status,r2
  8029e4:	20800a17 	ldw	r2,40(r4)
  8029e8:	10000226 	beq	r2,zero,8029f4 <alt_adc_irq+0x38>
  8029ec:	21000b17 	ldw	r4,44(r4)
  8029f0:	103ee83a 	callr	r2
  8029f4:	81000c17 	ldw	r4,48(r16)
  8029f8:	08029a80 	call	8029a8 <adc_clear_interrupt_status>
  8029fc:	8801703a 	wrctl	status,r17
  802a00:	dfc00217 	ldw	ra,8(sp)
  802a04:	dc400117 	ldw	r17,4(sp)
  802a08:	dc000017 	ldw	r16,0(sp)
  802a0c:	dec00304 	addi	sp,sp,12
  802a10:	f800283a 	ret

00802a14 <alt_adc_register_callback>:
  802a14:	defffe04 	addi	sp,sp,-8
  802a18:	dc000015 	stw	r16,0(sp)
  802a1c:	dfc00115 	stw	ra,4(sp)
  802a20:	21400a15 	stw	r5,40(r4)
  802a24:	21800b15 	stw	r6,44(r4)
  802a28:	21c00c15 	stw	r7,48(r4)
  802a2c:	3821883a 	mov	r16,r7
  802a30:	3809883a 	mov	r4,r7
  802a34:	28000626 	beq	r5,zero,802a50 <alt_adc_register_callback+0x3c>
  802a38:	08029a80 	call	8029a8 <adc_clear_interrupt_status>
  802a3c:	8009883a 	mov	r4,r16
  802a40:	dfc00117 	ldw	ra,4(sp)
  802a44:	dc000017 	ldw	r16,0(sp)
  802a48:	dec00204 	addi	sp,sp,8
  802a4c:	080297c1 	jmpi	80297c <adc_interrupt_enable>
  802a50:	08029900 	call	802990 <adc_interrupt_disable>
  802a54:	8009883a 	mov	r4,r16
  802a58:	dfc00117 	ldw	ra,4(sp)
  802a5c:	dc000017 	ldw	r16,0(sp)
  802a60:	dec00204 	addi	sp,sp,8
  802a64:	08029a81 	jmpi	8029a8 <adc_clear_interrupt_status>

00802a68 <adc_interrupt_asserted>:
  802a68:	20804137 	ldwio	r2,260(r4)
  802a6c:	1080004c 	andi	r2,r2,1
  802a70:	0085c83a 	sub	r2,zero,r2
  802a74:	f800283a 	ret

00802a78 <adc_wait_for_interrupt>:
  802a78:	21004104 	addi	r4,r4,260
  802a7c:	20800037 	ldwio	r2,0(r4)
  802a80:	1080004c 	andi	r2,r2,1
  802a84:	103ffd26 	beq	r2,zero,802a7c <__alt_data_end+0xff802a7c>
  802a88:	f800283a 	ret

00802a8c <close>:
  802a8c:	defffd04 	addi	sp,sp,-12
  802a90:	dfc00215 	stw	ra,8(sp)
  802a94:	dc400115 	stw	r17,4(sp)
  802a98:	dc000015 	stw	r16,0(sp)
  802a9c:	20001d16 	blt	r4,zero,802b14 <close+0x88>
  802aa0:	01400304 	movi	r5,12
  802aa4:	2023883a 	mov	r17,r4
  802aa8:	080240c0 	call	80240c <__mulsi3>
  802aac:	01002034 	movhi	r4,128
  802ab0:	210e4a04 	addi	r4,r4,14632
  802ab4:	2089883a 	add	r4,r4,r2
  802ab8:	20001626 	beq	r4,zero,802b14 <close+0x88>
  802abc:	20800017 	ldw	r2,0(r4)
  802ac0:	10800417 	ldw	r2,16(r2)
  802ac4:	10000326 	beq	r2,zero,802ad4 <close+0x48>
  802ac8:	103ee83a 	callr	r2
  802acc:	1021883a 	mov	r16,r2
  802ad0:	00000106 	br	802ad8 <close+0x4c>
  802ad4:	0021883a 	mov	r16,zero
  802ad8:	8809883a 	mov	r4,r17
  802adc:	08030080 	call	803008 <alt_release_fd>
  802ae0:	0005883a 	mov	r2,zero
  802ae4:	8000160e 	bge	r16,zero,802b40 <close+0xb4>
  802ae8:	00802034 	movhi	r2,128
  802aec:	108ef304 	addi	r2,r2,15308
  802af0:	10800017 	ldw	r2,0(r2)
  802af4:	10000226 	beq	r2,zero,802b00 <close+0x74>
  802af8:	103ee83a 	callr	r2
  802afc:	00000206 	br	802b08 <close+0x7c>
  802b00:	00802034 	movhi	r2,128
  802b04:	108fc704 	addi	r2,r2,16156
  802b08:	0421c83a 	sub	r16,zero,r16
  802b0c:	14000015 	stw	r16,0(r2)
  802b10:	00000a06 	br	802b3c <close+0xb0>
  802b14:	00802034 	movhi	r2,128
  802b18:	108ef304 	addi	r2,r2,15308
  802b1c:	10800017 	ldw	r2,0(r2)
  802b20:	10000226 	beq	r2,zero,802b2c <close+0xa0>
  802b24:	103ee83a 	callr	r2
  802b28:	00000206 	br	802b34 <close+0xa8>
  802b2c:	00802034 	movhi	r2,128
  802b30:	108fc704 	addi	r2,r2,16156
  802b34:	00c01444 	movi	r3,81
  802b38:	10c00015 	stw	r3,0(r2)
  802b3c:	00bfffc4 	movi	r2,-1
  802b40:	dfc00217 	ldw	ra,8(sp)
  802b44:	dc400117 	ldw	r17,4(sp)
  802b48:	dc000017 	ldw	r16,0(sp)
  802b4c:	dec00304 	addi	sp,sp,12
  802b50:	f800283a 	ret

00802b54 <alt_dcache_flush_all>:
  802b54:	f800283a 	ret

00802b58 <alt_dev_null_write>:
  802b58:	3005883a 	mov	r2,r6
  802b5c:	f800283a 	ret

00802b60 <alt_dev_llist_insert>:
  802b60:	20000226 	beq	r4,zero,802b6c <alt_dev_llist_insert+0xc>
  802b64:	20800217 	ldw	r2,8(r4)
  802b68:	1000131e 	bne	r2,zero,802bb8 <alt_dev_llist_insert+0x58>
  802b6c:	00802034 	movhi	r2,128
  802b70:	108ef304 	addi	r2,r2,15308
  802b74:	10800017 	ldw	r2,0(r2)
  802b78:	10000926 	beq	r2,zero,802ba0 <alt_dev_llist_insert+0x40>
  802b7c:	deffff04 	addi	sp,sp,-4
  802b80:	dfc00015 	stw	ra,0(sp)
  802b84:	103ee83a 	callr	r2
  802b88:	00c00584 	movi	r3,22
  802b8c:	10c00015 	stw	r3,0(r2)
  802b90:	00bffa84 	movi	r2,-22
  802b94:	dfc00017 	ldw	ra,0(sp)
  802b98:	dec00104 	addi	sp,sp,4
  802b9c:	f800283a 	ret
  802ba0:	00802034 	movhi	r2,128
  802ba4:	108fc704 	addi	r2,r2,16156
  802ba8:	00c00584 	movi	r3,22
  802bac:	10c00015 	stw	r3,0(r2)
  802bb0:	00bffa84 	movi	r2,-22
  802bb4:	f800283a 	ret
  802bb8:	28800017 	ldw	r2,0(r5)
  802bbc:	21400115 	stw	r5,4(r4)
  802bc0:	20800015 	stw	r2,0(r4)
  802bc4:	28800017 	ldw	r2,0(r5)
  802bc8:	11000115 	stw	r4,4(r2)
  802bcc:	29000015 	stw	r4,0(r5)
  802bd0:	0005883a 	mov	r2,zero
  802bd4:	f800283a 	ret

00802bd8 <alt_find_dev>:
  802bd8:	defffb04 	addi	sp,sp,-20
  802bdc:	dcc00315 	stw	r19,12(sp)
  802be0:	dc800215 	stw	r18,8(sp)
  802be4:	dc400115 	stw	r17,4(sp)
  802be8:	dc000015 	stw	r16,0(sp)
  802bec:	dfc00415 	stw	ra,16(sp)
  802bf0:	2027883a 	mov	r19,r4
  802bf4:	2823883a 	mov	r17,r5
  802bf8:	2c000017 	ldw	r16,0(r5)
  802bfc:	08024ec0 	call	8024ec <strlen>
  802c00:	14800044 	addi	r18,r2,1
  802c04:	84400726 	beq	r16,r17,802c24 <alt_find_dev+0x4c>
  802c08:	81000217 	ldw	r4,8(r16)
  802c0c:	900d883a 	mov	r6,r18
  802c10:	980b883a 	mov	r5,r19
  802c14:	08032380 	call	803238 <memcmp>
  802c18:	10000426 	beq	r2,zero,802c2c <alt_find_dev+0x54>
  802c1c:	84000017 	ldw	r16,0(r16)
  802c20:	003ff806 	br	802c04 <__alt_data_end+0xff802c04>
  802c24:	0005883a 	mov	r2,zero
  802c28:	00000106 	br	802c30 <alt_find_dev+0x58>
  802c2c:	8005883a 	mov	r2,r16
  802c30:	dfc00417 	ldw	ra,16(sp)
  802c34:	dcc00317 	ldw	r19,12(sp)
  802c38:	dc800217 	ldw	r18,8(sp)
  802c3c:	dc400117 	ldw	r17,4(sp)
  802c40:	dc000017 	ldw	r16,0(sp)
  802c44:	dec00504 	addi	sp,sp,20
  802c48:	f800283a 	ret

00802c4c <alt_icache_flush_all>:
  802c4c:	f800283a 	ret

00802c50 <alt_ic_isr_register>:
  802c50:	0802cec1 	jmpi	802cec <alt_iic_isr_register>

00802c54 <alt_ic_irq_enable>:
  802c54:	000d303a 	rdctl	r6,status
  802c58:	00bfff84 	movi	r2,-2
  802c5c:	3084703a 	and	r2,r6,r2
  802c60:	1001703a 	wrctl	status,r2
  802c64:	00802034 	movhi	r2,128
  802c68:	108fc504 	addi	r2,r2,16148
  802c6c:	01000044 	movi	r4,1
  802c70:	10c00017 	ldw	r3,0(r2)
  802c74:	214a983a 	sll	r5,r4,r5
  802c78:	28cab03a 	or	r5,r5,r3
  802c7c:	11400015 	stw	r5,0(r2)
  802c80:	10800017 	ldw	r2,0(r2)
  802c84:	100170fa 	wrctl	ienable,r2
  802c88:	3001703a 	wrctl	status,r6
  802c8c:	0005883a 	mov	r2,zero
  802c90:	f800283a 	ret

00802c94 <alt_ic_irq_disable>:
  802c94:	000d303a 	rdctl	r6,status
  802c98:	00bfff84 	movi	r2,-2
  802c9c:	3084703a 	and	r2,r6,r2
  802ca0:	1001703a 	wrctl	status,r2
  802ca4:	00802034 	movhi	r2,128
  802ca8:	108fc504 	addi	r2,r2,16148
  802cac:	013fff84 	movi	r4,-2
  802cb0:	10c00017 	ldw	r3,0(r2)
  802cb4:	214a183a 	rol	r5,r4,r5
  802cb8:	28ca703a 	and	r5,r5,r3
  802cbc:	11400015 	stw	r5,0(r2)
  802cc0:	10800017 	ldw	r2,0(r2)
  802cc4:	100170fa 	wrctl	ienable,r2
  802cc8:	3001703a 	wrctl	status,r6
  802ccc:	0005883a 	mov	r2,zero
  802cd0:	f800283a 	ret

00802cd4 <alt_ic_irq_enabled>:
  802cd4:	000730fa 	rdctl	r3,ienable
  802cd8:	00800044 	movi	r2,1
  802cdc:	1144983a 	sll	r2,r2,r5
  802ce0:	10c4703a 	and	r2,r2,r3
  802ce4:	1004c03a 	cmpne	r2,r2,zero
  802ce8:	f800283a 	ret

00802cec <alt_iic_isr_register>:
  802cec:	00c007c4 	movi	r3,31
  802cf0:	19401616 	blt	r3,r5,802d4c <alt_iic_isr_register+0x60>
  802cf4:	defffe04 	addi	sp,sp,-8
  802cf8:	dfc00115 	stw	ra,4(sp)
  802cfc:	dc000015 	stw	r16,0(sp)
  802d00:	0021303a 	rdctl	r16,status
  802d04:	00ffff84 	movi	r3,-2
  802d08:	80c6703a 	and	r3,r16,r3
  802d0c:	1801703a 	wrctl	status,r3
  802d10:	280490fa 	slli	r2,r5,3
  802d14:	00c02034 	movhi	r3,128
  802d18:	18d06704 	addi	r3,r3,16796
  802d1c:	1885883a 	add	r2,r3,r2
  802d20:	11800015 	stw	r6,0(r2)
  802d24:	11c00115 	stw	r7,4(r2)
  802d28:	30000226 	beq	r6,zero,802d34 <alt_iic_isr_register+0x48>
  802d2c:	0802c540 	call	802c54 <alt_ic_irq_enable>
  802d30:	00000106 	br	802d38 <alt_iic_isr_register+0x4c>
  802d34:	0802c940 	call	802c94 <alt_ic_irq_disable>
  802d38:	8001703a 	wrctl	status,r16
  802d3c:	dfc00117 	ldw	ra,4(sp)
  802d40:	dc000017 	ldw	r16,0(sp)
  802d44:	dec00204 	addi	sp,sp,8
  802d48:	f800283a 	ret
  802d4c:	00bffa84 	movi	r2,-22
  802d50:	f800283a 	ret

00802d54 <alt_open_fd.constprop.0>:
  802d54:	defffd04 	addi	sp,sp,-12
  802d58:	dc400115 	stw	r17,4(sp)
  802d5c:	2023883a 	mov	r17,r4
  802d60:	2809883a 	mov	r4,r5
  802d64:	300b883a 	mov	r5,r6
  802d68:	01807fc4 	movi	r6,511
  802d6c:	dfc00215 	stw	ra,8(sp)
  802d70:	dc000015 	stw	r16,0(sp)
  802d74:	0802e500 	call	802e50 <open>
  802d78:	10001316 	blt	r2,zero,802dc8 <alt_open_fd.constprop.0+0x74>
  802d7c:	01400304 	movi	r5,12
  802d80:	1009883a 	mov	r4,r2
  802d84:	1021883a 	mov	r16,r2
  802d88:	080240c0 	call	80240c <__mulsi3>
  802d8c:	00c02034 	movhi	r3,128
  802d90:	18ce4a04 	addi	r3,r3,14632
  802d94:	1885883a 	add	r2,r3,r2
  802d98:	10c00017 	ldw	r3,0(r2)
  802d9c:	8009883a 	mov	r4,r16
  802da0:	88c00015 	stw	r3,0(r17)
  802da4:	10c00117 	ldw	r3,4(r2)
  802da8:	10800217 	ldw	r2,8(r2)
  802dac:	88c00115 	stw	r3,4(r17)
  802db0:	88800215 	stw	r2,8(r17)
  802db4:	dfc00217 	ldw	ra,8(sp)
  802db8:	dc400117 	ldw	r17,4(sp)
  802dbc:	dc000017 	ldw	r16,0(sp)
  802dc0:	dec00304 	addi	sp,sp,12
  802dc4:	08030081 	jmpi	803008 <alt_release_fd>
  802dc8:	dfc00217 	ldw	ra,8(sp)
  802dcc:	dc400117 	ldw	r17,4(sp)
  802dd0:	dc000017 	ldw	r16,0(sp)
  802dd4:	dec00304 	addi	sp,sp,12
  802dd8:	f800283a 	ret

00802ddc <alt_io_redirect>:
  802ddc:	defffb04 	addi	sp,sp,-20
  802de0:	dc000015 	stw	r16,0(sp)
  802de4:	04002034 	movhi	r16,128
  802de8:	840e4d04 	addi	r16,r16,14644
  802dec:	dc400115 	stw	r17,4(sp)
  802df0:	04400044 	movi	r17,1
  802df4:	dcc00315 	stw	r19,12(sp)
  802df8:	dc800215 	stw	r18,8(sp)
  802dfc:	2827883a 	mov	r19,r5
  802e00:	3025883a 	mov	r18,r6
  802e04:	200b883a 	mov	r5,r4
  802e08:	880d883a 	mov	r6,r17
  802e0c:	8009883a 	mov	r4,r16
  802e10:	dfc00415 	stw	ra,16(sp)
  802e14:	0802d540 	call	802d54 <alt_open_fd.constprop.0>
  802e18:	980b883a 	mov	r5,r19
  802e1c:	813ffd04 	addi	r4,r16,-12
  802e20:	000d883a 	mov	r6,zero
  802e24:	0802d540 	call	802d54 <alt_open_fd.constprop.0>
  802e28:	880d883a 	mov	r6,r17
  802e2c:	900b883a 	mov	r5,r18
  802e30:	81000304 	addi	r4,r16,12
  802e34:	dfc00417 	ldw	ra,16(sp)
  802e38:	dcc00317 	ldw	r19,12(sp)
  802e3c:	dc800217 	ldw	r18,8(sp)
  802e40:	dc400117 	ldw	r17,4(sp)
  802e44:	dc000017 	ldw	r16,0(sp)
  802e48:	dec00504 	addi	sp,sp,20
  802e4c:	0802d541 	jmpi	802d54 <alt_open_fd.constprop.0>

00802e50 <open>:
  802e50:	defff504 	addi	sp,sp,-44
  802e54:	dd000515 	stw	r20,20(sp)
  802e58:	2829883a 	mov	r20,r5
  802e5c:	01402034 	movhi	r5,128
  802e60:	294eef04 	addi	r5,r5,15292
  802e64:	dd400615 	stw	r21,24(sp)
  802e68:	dcc00415 	stw	r19,16(sp)
  802e6c:	dfc00a15 	stw	ra,40(sp)
  802e70:	df000915 	stw	fp,36(sp)
  802e74:	ddc00815 	stw	r23,32(sp)
  802e78:	dd800715 	stw	r22,28(sp)
  802e7c:	dc800315 	stw	r18,12(sp)
  802e80:	dc400215 	stw	r17,8(sp)
  802e84:	dc000115 	stw	r16,4(sp)
  802e88:	2027883a 	mov	r19,r4
  802e8c:	302b883a 	mov	r21,r6
  802e90:	0802bd80 	call	802bd8 <alt_find_dev>
  802e94:	1000061e 	bne	r2,zero,802eb0 <open+0x60>
  802e98:	9809883a 	mov	r4,r19
  802e9c:	080306c0 	call	80306c <alt_find_file>
  802ea0:	1023883a 	mov	r17,r2
  802ea4:	10004526 	beq	r2,zero,802fbc <open+0x16c>
  802ea8:	04800044 	movi	r18,1
  802eac:	00000206 	br	802eb8 <open+0x68>
  802eb0:	1023883a 	mov	r17,r2
  802eb4:	0025883a 	mov	r18,zero
  802eb8:	8809883a 	mov	r4,r17
  802ebc:	08031180 	call	803118 <alt_get_fd>
  802ec0:	1021883a 	mov	r16,r2
  802ec4:	10004016 	blt	r2,zero,802fc8 <open+0x178>
  802ec8:	01400304 	movi	r5,12
  802ecc:	1009883a 	mov	r4,r2
  802ed0:	05802034 	movhi	r22,128
  802ed4:	080240c0 	call	80240c <__mulsi3>
  802ed8:	b58e4a04 	addi	r22,r22,14632
  802edc:	b0af883a 	add	r23,r22,r2
  802ee0:	00900034 	movhi	r2,16384
  802ee4:	10bfffc4 	addi	r2,r2,-1
  802ee8:	a084703a 	and	r2,r20,r2
  802eec:	b8c00204 	addi	r3,r23,8
  802ef0:	90000526 	beq	r18,zero,802f08 <open+0xb8>
  802ef4:	18800015 	stw	r2,0(r3)
  802ef8:	88800317 	ldw	r2,12(r17)
  802efc:	1000191e 	bne	r2,zero,802f64 <open+0x114>
  802f00:	8005883a 	mov	r2,r16
  802f04:	00003406 	br	802fd8 <open+0x188>
  802f08:	10900034 	orhi	r2,r2,16384
  802f0c:	18800015 	stw	r2,0(r3)
  802f10:	00802034 	movhi	r2,128
  802f14:	108eee04 	addi	r2,r2,15288
  802f18:	10c00017 	ldw	r3,0(r2)
  802f1c:	b025883a 	mov	r18,r22
  802f20:	0039883a 	mov	fp,zero
  802f24:	8009883a 	mov	r4,r16
  802f28:	01400304 	movi	r5,12
  802f2c:	d8c00015 	stw	r3,0(sp)
  802f30:	080240c0 	call	80240c <__mulsi3>
  802f34:	b085883a 	add	r2,r22,r2
  802f38:	91000017 	ldw	r4,0(r18)
  802f3c:	10800017 	ldw	r2,0(r2)
  802f40:	d8c00017 	ldw	r3,0(sp)
  802f44:	2080031e 	bne	r4,r2,802f54 <open+0x104>
  802f48:	90800217 	ldw	r2,8(r18)
  802f4c:	1000010e 	bge	r2,zero,802f54 <open+0x104>
  802f50:	95c01f1e 	bne	r18,r23,802fd0 <open+0x180>
  802f54:	e7000044 	addi	fp,fp,1
  802f58:	94800304 	addi	r18,r18,12
  802f5c:	1f3ff12e 	bgeu	r3,fp,802f24 <__alt_data_end+0xff802f24>
  802f60:	003fe506 	br	802ef8 <__alt_data_end+0xff802ef8>
  802f64:	a80f883a 	mov	r7,r21
  802f68:	a00d883a 	mov	r6,r20
  802f6c:	980b883a 	mov	r5,r19
  802f70:	b809883a 	mov	r4,r23
  802f74:	103ee83a 	callr	r2
  802f78:	1023883a 	mov	r17,r2
  802f7c:	8005883a 	mov	r2,r16
  802f80:	8800150e 	bge	r17,zero,802fd8 <open+0x188>
  802f84:	8009883a 	mov	r4,r16
  802f88:	08030080 	call	803008 <alt_release_fd>
  802f8c:	00802034 	movhi	r2,128
  802f90:	108ef304 	addi	r2,r2,15308
  802f94:	10800017 	ldw	r2,0(r2)
  802f98:	10000226 	beq	r2,zero,802fa4 <open+0x154>
  802f9c:	103ee83a 	callr	r2
  802fa0:	00000206 	br	802fac <open+0x15c>
  802fa4:	00802034 	movhi	r2,128
  802fa8:	108fc704 	addi	r2,r2,16156
  802fac:	0463c83a 	sub	r17,zero,r17
  802fb0:	14400015 	stw	r17,0(r2)
  802fb4:	00bfffc4 	movi	r2,-1
  802fb8:	00000706 	br	802fd8 <open+0x188>
  802fbc:	047ffb44 	movi	r17,-19
  802fc0:	043fffc4 	movi	r16,-1
  802fc4:	003fef06 	br	802f84 <__alt_data_end+0xff802f84>
  802fc8:	1023883a 	mov	r17,r2
  802fcc:	003fed06 	br	802f84 <__alt_data_end+0xff802f84>
  802fd0:	047ffcc4 	movi	r17,-13
  802fd4:	003feb06 	br	802f84 <__alt_data_end+0xff802f84>
  802fd8:	dfc00a17 	ldw	ra,40(sp)
  802fdc:	df000917 	ldw	fp,36(sp)
  802fe0:	ddc00817 	ldw	r23,32(sp)
  802fe4:	dd800717 	ldw	r22,28(sp)
  802fe8:	dd400617 	ldw	r21,24(sp)
  802fec:	dd000517 	ldw	r20,20(sp)
  802ff0:	dcc00417 	ldw	r19,16(sp)
  802ff4:	dc800317 	ldw	r18,12(sp)
  802ff8:	dc400217 	ldw	r17,8(sp)
  802ffc:	dc000117 	ldw	r16,4(sp)
  803000:	dec00b04 	addi	sp,sp,44
  803004:	f800283a 	ret

00803008 <alt_release_fd>:
  803008:	00c00084 	movi	r3,2
  80300c:	1900140e 	bge	r3,r4,803060 <alt_release_fd+0x58>
  803010:	defffd04 	addi	sp,sp,-12
  803014:	dc000015 	stw	r16,0(sp)
  803018:	01400304 	movi	r5,12
  80301c:	04002034 	movhi	r16,128
  803020:	dfc00215 	stw	ra,8(sp)
  803024:	dc400115 	stw	r17,4(sp)
  803028:	840e4a04 	addi	r16,r16,14632
  80302c:	2023883a 	mov	r17,r4
  803030:	080240c0 	call	80240c <__mulsi3>
  803034:	8085883a 	add	r2,r16,r2
  803038:	01400304 	movi	r5,12
  80303c:	8809883a 	mov	r4,r17
  803040:	10000215 	stw	zero,8(r2)
  803044:	080240c0 	call	80240c <__mulsi3>
  803048:	8085883a 	add	r2,r16,r2
  80304c:	10000015 	stw	zero,0(r2)
  803050:	dfc00217 	ldw	ra,8(sp)
  803054:	dc400117 	ldw	r17,4(sp)
  803058:	dc000017 	ldw	r16,0(sp)
  80305c:	dec00304 	addi	sp,sp,12
  803060:	f800283a 	ret

00803064 <altera_nios2_gen2_irq_init>:
  803064:	000170fa 	wrctl	ienable,zero
  803068:	f800283a 	ret

0080306c <alt_find_file>:
  80306c:	00802034 	movhi	r2,128
  803070:	defffa04 	addi	sp,sp,-24
  803074:	108ef104 	addi	r2,r2,15300
  803078:	dc000015 	stw	r16,0(sp)
  80307c:	14000017 	ldw	r16,0(r2)
  803080:	dd000415 	stw	r20,16(sp)
  803084:	dcc00315 	stw	r19,12(sp)
  803088:	dc800215 	stw	r18,8(sp)
  80308c:	dfc00515 	stw	ra,20(sp)
  803090:	dc400115 	stw	r17,4(sp)
  803094:	2027883a 	mov	r19,r4
  803098:	1025883a 	mov	r18,r2
  80309c:	05000bc4 	movi	r20,47
  8030a0:	84801226 	beq	r16,r18,8030ec <alt_find_file+0x80>
  8030a4:	84400217 	ldw	r17,8(r16)
  8030a8:	8809883a 	mov	r4,r17
  8030ac:	08024ec0 	call	8024ec <strlen>
  8030b0:	8887883a 	add	r3,r17,r2
  8030b4:	18ffffc7 	ldb	r3,-1(r3)
  8030b8:	1d00011e 	bne	r3,r20,8030c0 <alt_find_file+0x54>
  8030bc:	10bfffc4 	addi	r2,r2,-1
  8030c0:	9887883a 	add	r3,r19,r2
  8030c4:	18c00007 	ldb	r3,0(r3)
  8030c8:	1d000126 	beq	r3,r20,8030d0 <alt_find_file+0x64>
  8030cc:	1800051e 	bne	r3,zero,8030e4 <alt_find_file+0x78>
  8030d0:	100d883a 	mov	r6,r2
  8030d4:	980b883a 	mov	r5,r19
  8030d8:	8809883a 	mov	r4,r17
  8030dc:	08032380 	call	803238 <memcmp>
  8030e0:	10000426 	beq	r2,zero,8030f4 <alt_find_file+0x88>
  8030e4:	84000017 	ldw	r16,0(r16)
  8030e8:	003fed06 	br	8030a0 <__alt_data_end+0xff8030a0>
  8030ec:	0005883a 	mov	r2,zero
  8030f0:	00000106 	br	8030f8 <alt_find_file+0x8c>
  8030f4:	8005883a 	mov	r2,r16
  8030f8:	dfc00517 	ldw	ra,20(sp)
  8030fc:	dd000417 	ldw	r20,16(sp)
  803100:	dcc00317 	ldw	r19,12(sp)
  803104:	dc800217 	ldw	r18,8(sp)
  803108:	dc400117 	ldw	r17,4(sp)
  80310c:	dc000017 	ldw	r16,0(sp)
  803110:	dec00604 	addi	sp,sp,24
  803114:	f800283a 	ret

00803118 <alt_get_fd>:
  803118:	defffb04 	addi	sp,sp,-20
  80311c:	dcc00315 	stw	r19,12(sp)
  803120:	04c02034 	movhi	r19,128
  803124:	dc800215 	stw	r18,8(sp)
  803128:	dc400115 	stw	r17,4(sp)
  80312c:	dc000015 	stw	r16,0(sp)
  803130:	dfc00415 	stw	ra,16(sp)
  803134:	2025883a 	mov	r18,r4
  803138:	0021883a 	mov	r16,zero
  80313c:	9cce4a04 	addi	r19,r19,14632
  803140:	04400804 	movi	r17,32
  803144:	01400304 	movi	r5,12
  803148:	8009883a 	mov	r4,r16
  80314c:	080240c0 	call	80240c <__mulsi3>
  803150:	9885883a 	add	r2,r19,r2
  803154:	10c00017 	ldw	r3,0(r2)
  803158:	1800071e 	bne	r3,zero,803178 <alt_get_fd+0x60>
  80315c:	14800015 	stw	r18,0(r2)
  803160:	00802034 	movhi	r2,128
  803164:	108eee04 	addi	r2,r2,15288
  803168:	10c00017 	ldw	r3,0(r2)
  80316c:	1c00050e 	bge	r3,r16,803184 <alt_get_fd+0x6c>
  803170:	14000015 	stw	r16,0(r2)
  803174:	00000306 	br	803184 <alt_get_fd+0x6c>
  803178:	84000044 	addi	r16,r16,1
  80317c:	847ff11e 	bne	r16,r17,803144 <__alt_data_end+0xff803144>
  803180:	043ffa04 	movi	r16,-24
  803184:	8005883a 	mov	r2,r16
  803188:	dfc00417 	ldw	ra,16(sp)
  80318c:	dcc00317 	ldw	r19,12(sp)
  803190:	dc800217 	ldw	r18,8(sp)
  803194:	dc400117 	ldw	r17,4(sp)
  803198:	dc000017 	ldw	r16,0(sp)
  80319c:	dec00504 	addi	sp,sp,20
  8031a0:	f800283a 	ret

008031a4 <alt_exception_cause_generated_bad_addr>:
  8031a4:	213ffe84 	addi	r4,r4,-6
  8031a8:	008003c4 	movi	r2,15
  8031ac:	11001636 	bltu	r2,r4,803208 <alt_exception_cause_generated_bad_addr+0x64>
  8031b0:	200890ba 	slli	r4,r4,2
  8031b4:	00802034 	movhi	r2,128
  8031b8:	108c7204 	addi	r2,r2,12744
  8031bc:	2089883a 	add	r4,r4,r2
  8031c0:	20800017 	ldw	r2,0(r4)
  8031c4:	1000683a 	jmp	r2
  8031c8:	00803210 	cmplti	r2,zero,200
  8031cc:	00803210 	cmplti	r2,zero,200
  8031d0:	00803208 	cmpgei	r2,zero,200
  8031d4:	00803208 	cmpgei	r2,zero,200
  8031d8:	00803208 	cmpgei	r2,zero,200
  8031dc:	00803210 	cmplti	r2,zero,200
  8031e0:	00803208 	cmpgei	r2,zero,200
  8031e4:	00803208 	cmpgei	r2,zero,200
  8031e8:	00803210 	cmplti	r2,zero,200
  8031ec:	00803210 	cmplti	r2,zero,200
  8031f0:	00803208 	cmpgei	r2,zero,200
  8031f4:	00803210 	cmplti	r2,zero,200
  8031f8:	00803208 	cmpgei	r2,zero,200
  8031fc:	00803208 	cmpgei	r2,zero,200
  803200:	00803208 	cmpgei	r2,zero,200
  803204:	00803210 	cmplti	r2,zero,200
  803208:	0005883a 	mov	r2,zero
  80320c:	f800283a 	ret
  803210:	00800044 	movi	r2,1
  803214:	f800283a 	ret

00803218 <exit>:
  803218:	defffe04 	addi	sp,sp,-8
  80321c:	000b883a 	mov	r5,zero
  803220:	dc000015 	stw	r16,0(sp)
  803224:	dfc00115 	stw	ra,4(sp)
  803228:	2021883a 	mov	r16,r4
  80322c:	08032680 	call	803268 <__call_exitprocs>
  803230:	8009883a 	mov	r4,r16
  803234:	08033f80 	call	8033f8 <_exit>

00803238 <memcmp>:
  803238:	218d883a 	add	r6,r4,r6
  80323c:	21800826 	beq	r4,r6,803260 <memcmp+0x28>
  803240:	20800003 	ldbu	r2,0(r4)
  803244:	28c00003 	ldbu	r3,0(r5)
  803248:	10c00226 	beq	r2,r3,803254 <memcmp+0x1c>
  80324c:	10c5c83a 	sub	r2,r2,r3
  803250:	f800283a 	ret
  803254:	21000044 	addi	r4,r4,1
  803258:	29400044 	addi	r5,r5,1
  80325c:	003ff706 	br	80323c <__alt_data_end+0xff80323c>
  803260:	0005883a 	mov	r2,zero
  803264:	f800283a 	ret

00803268 <__call_exitprocs>:
  803268:	defff504 	addi	sp,sp,-44
  80326c:	dd000515 	stw	r20,20(sp)
  803270:	05002034 	movhi	r20,128
  803274:	dc800315 	stw	r18,12(sp)
  803278:	dfc00a15 	stw	ra,40(sp)
  80327c:	df000915 	stw	fp,36(sp)
  803280:	ddc00815 	stw	r23,32(sp)
  803284:	dd800715 	stw	r22,28(sp)
  803288:	dd400615 	stw	r21,24(sp)
  80328c:	dcc00415 	stw	r19,16(sp)
  803290:	dc400215 	stw	r17,8(sp)
  803294:	dc000115 	stw	r16,4(sp)
  803298:	d9000015 	stw	r4,0(sp)
  80329c:	2825883a 	mov	r18,r5
  8032a0:	a50ef504 	addi	r20,r20,15316
  8032a4:	a4400017 	ldw	r17,0(r20)
  8032a8:	8cc00c17 	ldw	r19,48(r17)
  8032ac:	8c400c04 	addi	r17,r17,48
  8032b0:	98004526 	beq	r19,zero,8033c8 <__call_exitprocs+0x160>
  8032b4:	9c000117 	ldw	r16,4(r19)
  8032b8:	00900034 	movhi	r2,16384
  8032bc:	10bfffc4 	addi	r2,r2,-1
  8032c0:	9d402217 	ldw	r21,136(r19)
  8032c4:	85bfffc4 	addi	r22,r16,-1
  8032c8:	80a1883a 	add	r16,r16,r2
  8032cc:	8421883a 	add	r16,r16,r16
  8032d0:	8421883a 	add	r16,r16,r16
  8032d4:	ac2f883a 	add	r23,r21,r16
  8032d8:	84000204 	addi	r16,r16,8
  8032dc:	9c21883a 	add	r16,r19,r16
  8032e0:	b0002716 	blt	r22,zero,803380 <__call_exitprocs+0x118>
  8032e4:	90000726 	beq	r18,zero,803304 <__call_exitprocs+0x9c>
  8032e8:	a800041e 	bne	r21,zero,8032fc <__call_exitprocs+0x94>
  8032ec:	b5bfffc4 	addi	r22,r22,-1
  8032f0:	bdffff04 	addi	r23,r23,-4
  8032f4:	843fff04 	addi	r16,r16,-4
  8032f8:	003ff906 	br	8032e0 <__alt_data_end+0xff8032e0>
  8032fc:	b9002017 	ldw	r4,128(r23)
  803300:	913ffa1e 	bne	r18,r4,8032ec <__alt_data_end+0xff8032ec>
  803304:	99000117 	ldw	r4,4(r19)
  803308:	82000017 	ldw	r8,0(r16)
  80330c:	213fffc4 	addi	r4,r4,-1
  803310:	b100021e 	bne	r22,r4,80331c <__call_exitprocs+0xb4>
  803314:	9d800115 	stw	r22,4(r19)
  803318:	00000106 	br	803320 <__call_exitprocs+0xb8>
  80331c:	80000015 	stw	zero,0(r16)
  803320:	403ff226 	beq	r8,zero,8032ec <__alt_data_end+0xff8032ec>
  803324:	9f000117 	ldw	fp,4(r19)
  803328:	a8000526 	beq	r21,zero,803340 <__call_exitprocs+0xd8>
  80332c:	00800044 	movi	r2,1
  803330:	1592983a 	sll	r9,r2,r22
  803334:	a9404017 	ldw	r5,256(r21)
  803338:	494a703a 	and	r5,r9,r5
  80333c:	2800021e 	bne	r5,zero,803348 <__call_exitprocs+0xe0>
  803340:	403ee83a 	callr	r8
  803344:	00000906 	br	80336c <__call_exitprocs+0x104>
  803348:	a9004117 	ldw	r4,260(r21)
  80334c:	4908703a 	and	r4,r9,r4
  803350:	2000041e 	bne	r4,zero,803364 <__call_exitprocs+0xfc>
  803354:	b9400017 	ldw	r5,0(r23)
  803358:	d9000017 	ldw	r4,0(sp)
  80335c:	403ee83a 	callr	r8
  803360:	00000206 	br	80336c <__call_exitprocs+0x104>
  803364:	b9000017 	ldw	r4,0(r23)
  803368:	403ee83a 	callr	r8
  80336c:	99000117 	ldw	r4,4(r19)
  803370:	e13fcc1e 	bne	fp,r4,8032a4 <__alt_data_end+0xff8032a4>
  803374:	89000017 	ldw	r4,0(r17)
  803378:	993fdc26 	beq	r19,r4,8032ec <__alt_data_end+0xff8032ec>
  80337c:	003fc906 	br	8032a4 <__alt_data_end+0xff8032a4>
  803380:	00800034 	movhi	r2,0
  803384:	10800004 	addi	r2,r2,0
  803388:	10000f26 	beq	r2,zero,8033c8 <__call_exitprocs+0x160>
  80338c:	99400117 	ldw	r5,4(r19)
  803390:	99000017 	ldw	r4,0(r19)
  803394:	2800091e 	bne	r5,zero,8033bc <__call_exitprocs+0x154>
  803398:	20000826 	beq	r4,zero,8033bc <__call_exitprocs+0x154>
  80339c:	89000015 	stw	r4,0(r17)
  8033a0:	a8000226 	beq	r21,zero,8033ac <__call_exitprocs+0x144>
  8033a4:	a809883a 	mov	r4,r21
  8033a8:	00000000 	call	0 <__reset-0x800000>
  8033ac:	9809883a 	mov	r4,r19
  8033b0:	00000000 	call	0 <__reset-0x800000>
  8033b4:	8cc00017 	ldw	r19,0(r17)
  8033b8:	003fbd06 	br	8032b0 <__alt_data_end+0xff8032b0>
  8033bc:	9823883a 	mov	r17,r19
  8033c0:	2027883a 	mov	r19,r4
  8033c4:	003fba06 	br	8032b0 <__alt_data_end+0xff8032b0>
  8033c8:	dfc00a17 	ldw	ra,40(sp)
  8033cc:	df000917 	ldw	fp,36(sp)
  8033d0:	ddc00817 	ldw	r23,32(sp)
  8033d4:	dd800717 	ldw	r22,28(sp)
  8033d8:	dd400617 	ldw	r21,24(sp)
  8033dc:	dd000517 	ldw	r20,20(sp)
  8033e0:	dcc00417 	ldw	r19,16(sp)
  8033e4:	dc800317 	ldw	r18,12(sp)
  8033e8:	dc400217 	ldw	r17,8(sp)
  8033ec:	dc000117 	ldw	r16,4(sp)
  8033f0:	dec00b04 	addi	sp,sp,44
  8033f4:	f800283a 	ret

008033f8 <_exit>:
  8033f8:	20000226 	beq	r4,zero,803404 <_exit+0xc>
  8033fc:	002af070 	cmpltui	zero,zero,43969
  803400:	00000106 	br	803408 <_exit+0x10>
  803404:	002af0b0 	cmpltui	zero,zero,43970
  803408:	003fff06 	br	803408 <__alt_data_end+0xff803408>
