
C_eng_job4.elf:     file format elf32-littlenios2
C_eng_job4.elf
architecture: nios2:r1, flags 0x00000112:
EXEC_P, HAS_SYMS, D_PAGED
start address 0x00800230

Program Header:
    LOAD off    0x00001000 vaddr 0x00800000 paddr 0x00800000 align 2**12
         filesz 0x00000020 memsz 0x00000020 flags r-x
    LOAD off    0x00001020 vaddr 0x00800020 paddr 0x00800020 align 2**12
         filesz 0x00004540 memsz 0x00004540 flags r-x
    LOAD off    0x00005560 vaddr 0x00804560 paddr 0x0080487c align 2**12
         filesz 0x0000031c memsz 0x0000031c flags rw-
    LOAD off    0x00005b98 vaddr 0x00804b98 paddr 0x00804b98 align 2**12
         filesz 0x00000000 memsz 0x000003a0 flags rw-

Sections:
Idx Name          Size      VMA       LMA       File off  Algn
  0 .entry        00000020  00800000  00800000  00001000  2**5
                  CONTENTS, ALLOC, LOAD, READONLY, CODE
  1 .exceptions   00000210  00800020  00800020  00001020  2**2
                  CONTENTS, ALLOC, LOAD, READONLY, CODE
  2 .text         00003e68  00800230  00800230  00001230  2**2
                  CONTENTS, ALLOC, LOAD, READONLY, CODE
  3 .rodata       000004c8  00804098  00804098  00005098  2**2
                  CONTENTS, ALLOC, LOAD, READONLY, DATA
  4 .rwdata       0000031c  00804560  0080487c  00005560  2**2
                  CONTENTS, ALLOC, LOAD, DATA, SMALL_DATA
  5 .bss          000003a0  00804b98  00804b98  00005b98  2**2
                  ALLOC, SMALL_DATA
  6 .SDRAM_Controller 00000000  00804f38  00804f38  0000587c  2**0
                  CONTENTS
  7 .comment      00000023  00000000  00000000  0000587c  2**0
                  CONTENTS, READONLY
  8 .debug_aranges 00000598  00000000  00000000  000058a0  2**3
                  CONTENTS, READONLY, DEBUGGING
  9 .debug_info   0000699d  00000000  00000000  00005e38  2**0
                  CONTENTS, READONLY, DEBUGGING
 10 .debug_abbrev 00002574  00000000  00000000  0000c7d5  2**0
                  CONTENTS, READONLY, DEBUGGING
 11 .debug_line   000029d3  00000000  00000000  0000ed49  2**0
                  CONTENTS, READONLY, DEBUGGING
 12 .debug_frame  00000fe4  00000000  00000000  0001171c  2**2
                  CONTENTS, READONLY, DEBUGGING
 13 .debug_str    00001fac  00000000  00000000  00012700  2**0
                  CONTENTS, READONLY, DEBUGGING
 14 .debug_loc    00000a05  00000000  00000000  000146ac  2**0
                  CONTENTS, READONLY, DEBUGGING
 15 .debug_alt_sim_info 00000010  00000000  00000000  000150b4  2**2
                  CONTENTS, READONLY, DEBUGGING
 16 .debug_ranges 000001c0  00000000  00000000  000150c8  2**3
                  CONTENTS, READONLY, DEBUGGING
 17 .thread_model 00000003  00000000  00000000  000170c5  2**0
                  CONTENTS, READONLY
 18 .cpu          00000009  00000000  00000000  000170c8  2**0
                  CONTENTS, READONLY
 19 .qsys         00000001  00000000  00000000  000170d1  2**0
                  CONTENTS, READONLY
 20 .simulation_enabled 00000001  00000000  00000000  000170d2  2**0
                  CONTENTS, READONLY
 21 .stderr_dev   0000000b  00000000  00000000  000170d3  2**0
                  CONTENTS, READONLY
 22 .stdin_dev    0000000b  00000000  00000000  000170de  2**0
                  CONTENTS, READONLY
 23 .stdout_dev   0000000b  00000000  00000000  000170e9  2**0
                  CONTENTS, READONLY
 24 .sopc_system_name 00000017  00000000  00000000  000170f4  2**0
                  CONTENTS, READONLY
 25 .quartus_project_dir 00000040  00000000  00000000  0001710b  2**0
                  CONTENTS, READONLY
 26 .sopcinfo     0007c6c2  00000000  00000000  0001714b  2**0
                  CONTENTS, READONLY
SYMBOL TABLE:
00800000 l    d  .entry	00000000 .entry
00800020 l    d  .exceptions	00000000 .exceptions
00800230 l    d  .text	00000000 .text
00804098 l    d  .rodata	00000000 .rodata
00804560 l    d  .rwdata	00000000 .rwdata
00804b98 l    d  .bss	00000000 .bss
00804f38 l    d  .SDRAM_Controller	00000000 .SDRAM_Controller
00000000 l    d  .comment	00000000 .comment
00000000 l    d  .debug_aranges	00000000 .debug_aranges
00000000 l    d  .debug_info	00000000 .debug_info
00000000 l    d  .debug_abbrev	00000000 .debug_abbrev
00000000 l    d  .debug_line	00000000 .debug_line
00000000 l    d  .debug_frame	00000000 .debug_frame
00000000 l    d  .debug_str	00000000 .debug_str
00000000 l    d  .debug_loc	00000000 .debug_loc
00000000 l    d  .debug_alt_sim_info	00000000 .debug_alt_sim_info
00000000 l    d  .debug_ranges	00000000 .debug_ranges
00000000 l    df *ABS*	00000000 ../C_eng_job4_bsp//obj/HAL/src/crt0.o
00800268 l       .text	00000000 alt_after_alt_main
00000000 l    df *ABS*	00000000 alt_irq_handler.c
00000000 l    df *ABS*	00000000 alt_instruction_exception_entry.c
00000000 l    df *ABS*	00000000 main.c
00804bbc l     O .bss	000000d4 q1.3788
00804c90 l     O .bss	000000d4 q4.3789
00804d64 l     O .bss	000000d4 q5.3790
00000000 l    df *ABS*	00000000 sensor.c
00000000 l    df *ABS*	00000000 vga_util.c
00804b98 l     O .bss	00000004 seconds.2779
00804b9c l     O .bss	00000004 minutes.2778
00804ba0 l     O .bss	00000004 hours.2777
00000000 l    df *ABS*	00000000 lib2-divmod.c
00000000 l    df *ABS*	00000000 lib2-mul.c
00000000 l    df *ABS*	00000000 fixsfsi.c
00000000 l    df *ABS*	00000000 memcpy.c
00000000 l    df *ABS*	00000000 memset.c
00000000 l    df *ABS*	00000000 strlen.c
00000000 l    df *ABS*	00000000 alt_load.c
008025b0 l     F .text	00000068 alt_load_section
00000000 l    df *ABS*	00000000 alt_main.c
00000000 l    df *ABS*	00000000 alt_sys_init.c
00802708 l     F .text	00000038 alt_dev_reg
00804560 l     O .rwdata	0000002c jtag_uart_0
0080458c l     O .rwdata	0000003c modular_adc_0
00000000 l    df *ABS*	00000000 altera_avalon_jtag_uart_fd.c
00000000 l    df *ABS*	00000000 altera_avalon_jtag_uart_read.c
00000000 l    df *ABS*	00000000 altera_avalon_jtag_uart_write.c
00000000 l    df *ABS*	00000000 altera_avalon_spi.c
00000000 l    df *ABS*	00000000 altera_modular_adc.c
00802c00 l     F .text	000000a8 alt_adc_irq
00000000 l    df *ABS*	00000000 alt_close.c
0080316c l     F .text	00000050 alt_get_errno
00000000 l    df *ABS*	00000000 alt_dcache_flush_all.c
00000000 l    df *ABS*	00000000 alt_dev.c
008032b4 l     F .text	0000002c alt_dev_null_write
00000000 l    df *ABS*	00000000 alt_dev_llist_insert.c
008032e0 l     F .text	00000050 alt_get_errno
00000000 l    df *ABS*	00000000 alt_errno.c
00000000 l    df *ABS*	00000000 alt_find_dev.c
00000000 l    df *ABS*	00000000 alt_icache_flush_all.c
00000000 l    df *ABS*	00000000 alt_iic.c
00000000 l    df *ABS*	00000000 alt_iic_isr_register.c
00000000 l    df *ABS*	00000000 alt_io_redirect.c
00803754 l     F .text	000000e4 alt_open_fd
00000000 l    df *ABS*	00000000 alt_irq_vars.c
00000000 l    df *ABS*	00000000 alt_open.c
008038b4 l     F .text	00000050 alt_get_errno
00803904 l     F .text	000000f4 alt_file_locked
00000000 l    df *ABS*	00000000 alt_release_fd.c
00000000 l    df *ABS*	00000000 altera_nios2_gen2_irq.c
00000000 l    df *ABS*	00000000 alt_find_file.c
00000000 l    df *ABS*	00000000 alt_get_fd.c
00000000 l    df *ABS*	00000000 exit.c
00000000 l    df *ABS*	00000000 int_errno.c
00000000 l    df *ABS*	00000000 memcmp.c
00000000 l    df *ABS*	00000000 __call_atexit.c
00000000 l    df *ABS*	00000000 impure.c
00804770 l     O .rwdata	000000e0 impure_data
00000000 l    df *ABS*	00000000 alt_exit.c
00804bb4 g     O .bss	00000004 alt_instruction_exception_handler
00802ea0 g     F .text	00000050 adc_stop
0080269c g     F .text	0000006c alt_main
00804e38 g     O .bss	00000100 alt_irq
0080487c g       *ABS*	00000000 __flash_rwdata_start
008013a4 g     F .text	0000009c i2bcd
00801c78 g     F .text	00000130 print_char
008024dc g     F .text	00000070 .hidden __fixsfsi
00802258 g     F .text	000000a8 print_welcome_screen
00803bdc g     F .text	00000024 altera_nios2_gen2_irq_init
00800000 g     F .entry	0000000c __reset
00803064 g     F .text	00000048 adc_interrupt_disable
00800020 g       *ABS*	00000000 __flash_exceptions_start
00804bb8 g     O .bss	00000004 errno
00801270 g     F .text	00000114 read_accelerometerX
00802d54 g     F .text	00000074 altera_modular_adc_init
00804ba8 g     O .bss	00000004 alt_argv
0080c850 g       *ABS*	00000000 _gp
00801440 g     F .text	00000268 update_time
00800f34 g     F .text	00000080 read_temp
008045f0 g     O .rwdata	00000180 alt_fd_list
008033d4 g     F .text	00000090 alt_find_dev
0080254c g     F .text	00000028 memcpy
00801da8 g     F .text	000000a8 print_str
00802f68 g     F .text	0000003c adc_set_mode_run_continuously
00803838 g     F .text	0000007c alt_io_redirect
00803de8 g     F .text	0000009c alt_exception_cause_generated_bad_addr
00801850 g     F .text	000000d4 high_lite_5Hz_sampling_on_screen
00802884 g     F .text	000000ec altera_avalon_jtag_uart_read
008023f8 g     F .text	00000064 .hidden __udivsi3
00801ad8 g     F .text	000000d0 print_hline
00801034 g     F .text	00000034 config_time_base
00804850 g     O .rwdata	00000008 altera_modular_adc_list
00804868 g     O .rwdata	00000004 alt_max_fd
00804874 g     O .rwdata	00000004 _global_impure_ptr
00804f38 g       *ABS*	00000000 __bss_end
00803664 g     F .text	000000f0 alt_iic_isr_register
008010b4 g     F .text	00000114 draw_graph
00803130 g     F .text	0000003c adc_wait_for_interrupt
00801a2c g     F .text	000000ac print_pix
00803618 g     F .text	0000004c alt_ic_irq_enabled
00804bb0 g     O .bss	00000004 alt_irq_active
008000fc g     F .exceptions	000000d4 alt_irq_handler
008045c8 g     O .rwdata	00000028 alt_dev_null
00802f28 g     F .text	00000040 adc_set_mode_run_once
00803294 g     F .text	00000020 alt_dcache_flush_all
0080487c g       *ABS*	00000000 __ram_rwdata_end
00804860 g     O .rwdata	00000008 alt_dev_list
00801ba8 g     F .text	000000d0 print_vline
00804560 g       *ABS*	00000000 __ram_rodata_end
00802ef0 g     F .text	00000038 adc_start
0080245c g     F .text	00000058 .hidden __umodsi3
00804f38 g       *ABS*	00000000 end
008001d0 g     F .exceptions	00000060 alt_instruction_exception_entry
01000000 g       *ABS*	00000000 __alt_stack_pointer
00802970 g     F .text	00000094 altera_avalon_jtag_uart_write
00801068 g     F .text	0000004c init_measurement
00803ed4 g     F .text	00000190 __call_exitprocs
00800230 g     F .text	0000003c _start
008011c8 g     F .text	000000a8 update_graph
00802a04 g     F .text	000001fc alt_avalon_spi_command
00802778 g     F .text	0000004c alt_sys_init
008024b4 g     F .text	00000028 .hidden __mulsi3
00804560 g       *ABS*	00000000 __ram_rwdata_start
00804098 g       *ABS*	00000000 __ram_rodata_start
008027c4 g     F .text	00000060 altera_avalon_jtag_uart_read_fd
00803d14 g     F .text	000000d4 alt_get_fd
00803ea4 g     F .text	00000030 memcmp
00804f38 g       *ABS*	00000000 __alt_stack_base
00800b04 g     F .text	00000068 queue_dequeue
00803020 g     F .text	00000044 adc_interrupt_enable
00803c00 g     F .text	00000114 alt_find_file
00803330 g     F .text	000000a4 alt_dev_llist_insert
00804b98 g       *ABS*	00000000 __bss_start
00802574 g     F .text	00000020 memset
0080026c g     F .text	00000680 main
00804bac g     O .bss	00000004 alt_envp
00802824 g     F .text	00000060 altera_avalon_jtag_uart_write_fd
00802ca8 g     F .text	000000ac alt_adc_word_read
0080486c g     O .rwdata	00000004 alt_errno
00802300 g     F .text	00000084 .hidden __divsi3
00804098 g       *ABS*	00000000 __flash_rodata_start
008021f4 g     F .text	00000064 read_pixel_ram_int
00802740 g     F .text	00000038 alt_irq_init
00803b58 g     F .text	00000084 alt_release_fd
008016a8 g     F .text	000000d4 high_lite_dot2Hz_sampling_on_screen
00804878 g     O .rwdata	00000004 _impure_ptr
00804ba4 g     O .bss	00000004 alt_argc
0080177c g     F .text	000000d4 high_lite_1Hz_sampling_on_screen
00800000 g       *ABS*	00000000 __alt_mem_SDRAM_Controller
00800020 g       .exceptions	00000000 alt_irq_entry
00804858 g     O .rwdata	00000008 alt_fs_list
00800020 g       *ABS*	00000000 __ram_exceptions_start
00803484 g     F .text	00000050 alt_ic_isr_register
0080487c g       *ABS*	00000000 _edata
00804f38 g       *ABS*	00000000 _end
00800fb4 g     F .text	00000080 read_light
008030f0 g     F .text	00000040 adc_interrupt_asserted
00801e50 g     F .text	00000158 print_symmetry_dots_circle
00800230 g       *ABS*	00000000 __ram_exceptions_end
00803574 g     F .text	000000a4 alt_ic_irq_disable
008030ac g     F .text	00000044 adc_clear_interrupt_status
00803e84 g     F .text	00000020 exit
00802384 g     F .text	00000074 .hidden __modsi3
01000000 g       *ABS*	00000000 __alt_data_end
00800020 g     F .exceptions	00000000 alt_exception
00802e60 g     F .text	00000040 altera_modular_adc_open
00804064 g     F .text	00000034 _exit
00800bbc g     F .text	00000378 queue_print_screen
00802594 g     F .text	0000001c strlen
008039f8 g     F .text	00000160 open
00802fa4 g     F .text	0000007c adc_recalibrate
00803464 g     F .text	00000020 alt_icache_flush_all
00801384 g     F .text	00000020 do_nothing
00804870 g     O .rwdata	00000004 alt_priority_mask
008034d4 g     F .text	000000a0 alt_ic_irq_enable
00801fa8 g     F .text	00000154 print_empty_circle
00802170 g     F .text	00000084 clear_screen
00800b6c g     F .text	00000050 queue_print
00801924 g     F .text	00000108 draw_sampling_frequecy_sub_screen
008031bc g     F .text	000000d8 close
008008ec g     F .text	0000008c queue_init
00800978 g     F .text	0000018c queue_enqueue
008020fc g     F .text	00000074 print_circle
00802618 g     F .text	00000084 alt_load
00802dc8 g     F .text	00000098 alt_adc_register_callback



Disassembly of section .entry:

00800000 <__reset>:
 * Jump to the _start entry point in the .text section if reset code
 * is allowed or if optimizing for RTL simulation.
 */
#if defined(ALT_ALLOW_CODE_AT_RESET) || defined(ALT_SIM_OPTIMIZE)
    /* Jump to the _start entry point in the .text section. */
    movhi r1, %hi(_start)
  800000:	00402034 	movhi	at,128
    ori r1, r1, %lo(_start)
  800004:	08408c14 	ori	at,at,560
    jmp r1
  800008:	0800683a 	jmp	at
	...

Disassembly of section .exceptions:

00800020 <alt_exception>:

#else /* ALT_EXCEPTION_STACK disabled */
        /* 
         * Reserve space on normal stack for registers about to be pushed.
         */
        addi  sp, sp, -76
  800020:	deffed04 	addi	sp,sp,-76
         * documentation for details).
         *
         * Leave a gap in the stack frame at 4(sp) for the muldiv handler to
         * store zero into.
         */
        stw   ra,  0(sp)
  800024:	dfc00015 	stw	ra,0(sp)
        stw   r1,   8(sp)
  800028:	d8400215 	stw	at,8(sp)
        stw   r2,  12(sp)
  80002c:	d8800315 	stw	r2,12(sp)
        stw   r3,  16(sp)
  800030:	d8c00415 	stw	r3,16(sp)
        stw   r4,  20(sp)
  800034:	d9000515 	stw	r4,20(sp)
        stw   r5,  24(sp)
  800038:	d9400615 	stw	r5,24(sp)
        stw   r6,  28(sp)
  80003c:	d9800715 	stw	r6,28(sp)
        stw   r7,  32(sp)
  800040:	d9c00815 	stw	r7,32(sp)
        rdctl r5, estatus   /* Read early to avoid usage stall */
  800044:	000b307a 	rdctl	r5,estatus
        stw   r8,  36(sp)
  800048:	da000915 	stw	r8,36(sp)
        stw   r9,  40(sp)
  80004c:	da400a15 	stw	r9,40(sp)
        stw   r10, 44(sp)
  800050:	da800b15 	stw	r10,44(sp)
        stw   r11, 48(sp)
  800054:	dac00c15 	stw	r11,48(sp)
        stw   r12, 52(sp)
  800058:	db000d15 	stw	r12,52(sp)
        stw   r13, 56(sp)
  80005c:	db400e15 	stw	r13,56(sp)
        stw   r14, 60(sp)
  800060:	db800f15 	stw	r14,60(sp)
        stw   r15, 64(sp)
  800064:	dbc01015 	stw	r15,64(sp)
        /*
         * ea-4 contains the address of the instruction being executed
         * when the exception occured. For interrupt exceptions, we will
         * will be re-issue the isntruction. Store it in 72(sp)
         */
        stw   r5,  68(sp)  /* estatus */
  800068:	d9401115 	stw	r5,68(sp)
        addi  r15, ea, -4  /* instruction that caused exception */
  80006c:	ebffff04 	addi	r15,ea,-4
        stw   r15,  72(sp)
  800070:	dbc01215 	stw	r15,72(sp)
#else
        /*
         * Test to see if the exception was a software exception or caused 
         * by an external interrupt, and vector accordingly.
         */
        rdctl r4, ipending
  800074:	0009313a 	rdctl	r4,ipending
        andi  r2, r5, 1
  800078:	2880004c 	andi	r2,r5,1
        beq   r2, zero, .Lnot_irq
  80007c:	10000326 	beq	r2,zero,80008c <alt_exception+0x6c>
        beq   r4, zero, .Lnot_irq
  800080:	20000226 	beq	r4,zero,80008c <alt_exception+0x6c>
        /*
         * Now that all necessary registers have been preserved, call 
         * alt_irq_handler() to process the interrupts.
         */

        call alt_irq_handler
  800084:	08000fc0 	call	8000fc <alt_irq_handler>

        .section .exceptions.irqreturn, "xa"

        br    .Lexception_exit
  800088:	00000706 	br	8000a8 <alt_exception+0x88>
         * upon completion, so we write ea (address of instruction *after*
         * the one where the exception occured) into 72(sp). The actual
         * instruction that caused the exception is written in r2, which these
         * handlers will utilize.
         */
        stw ea, 72(sp) /* EA is PC+4 so will skip over instruction causing exception */
  80008c:	df401215 	stw	ea,72(sp)
.Lunknown_16bit:
        addi.n r4, r4, 2 /* Need PC+2 to skip over instruction causing exception */
        stw r4, 72(sp)

#else /* CDX is not Enabled and all instructions are 32bits */
        ldw r2, -4(ea) /* Instruction value that caused exception */
  800090:	e8bfff17 	ldw	r2,-4(ea)
         * debugger is present) or go into an infinite loop since the
         * handling behavior is undefined; in that case we will not return here.
         */

        /* Load exception-causing address as first argument (r4) */
        addi   r4, ea, -4
  800094:	e93fff04 	addi	r4,ea,-4

        /* Call the instruction-exception entry */
        call   alt_instruction_exception_entry
  800098:	08001d00 	call	8001d0 <alt_instruction_exception_entry>
         * instruction
         *
         * Return code was 0: Skip. The instruction after the exception is
         * already stored in 72(sp).
         */
        bne   r2, r0, .Lexception_exit
  80009c:	1000021e 	bne	r2,zero,8000a8 <alt_exception+0x88>

        /*
         * Otherwise, modify 72(sp) to re-issue the instruction that caused the
         * exception.
         */
        addi  r15, ea, -4  /* instruction that caused exception */
  8000a0:	ebffff04 	addi	r15,ea,-4
        stw   r15,  72(sp)
  8000a4:	dbc01215 	stw	r15,72(sp)
        /* 
         * Restore the saved registers, so that all general purpose registers 
         * have been restored to their state at the time the interrupt occured.
         */

        ldw   r5,  68(sp)
  8000a8:	d9401117 	ldw	r5,68(sp)
        ldw   ea,  72(sp)  /* This becomes the PC once eret is executed */
  8000ac:	df401217 	ldw	ea,72(sp)
        ldw   ra,   0(sp)
  8000b0:	dfc00017 	ldw	ra,0(sp)

        wrctl estatus, r5
  8000b4:	2801707a 	wrctl	estatus,r5

        ldw   r1,   8(sp)
  8000b8:	d8400217 	ldw	at,8(sp)
        ldw   r2,  12(sp)
  8000bc:	d8800317 	ldw	r2,12(sp)
        ldw   r3,  16(sp)
  8000c0:	d8c00417 	ldw	r3,16(sp)
        ldw   r4,  20(sp)
  8000c4:	d9000517 	ldw	r4,20(sp)
        ldw   r5,  24(sp)
  8000c8:	d9400617 	ldw	r5,24(sp)
        ldw   r6,  28(sp)
  8000cc:	d9800717 	ldw	r6,28(sp)
        ldw   r7,  32(sp)
  8000d0:	d9c00817 	ldw	r7,32(sp)

#if defined(ALT_EXCEPTION_STACK) && defined(ALT_STACK_CHECK)
        ldw   et, %gprel(alt_exception_old_stack_limit)(gp)
#endif

        ldw   r8,  36(sp)
  8000d4:	da000917 	ldw	r8,36(sp)
        ldw   r9,  40(sp)
  8000d8:	da400a17 	ldw	r9,40(sp)
        ldw   r10, 44(sp)
  8000dc:	da800b17 	ldw	r10,44(sp)
        ldw   r11, 48(sp)
  8000e0:	dac00c17 	ldw	r11,48(sp)
        ldw   r12, 52(sp)
  8000e4:	db000d17 	ldw	r12,52(sp)
        ldw   r13, 56(sp)
  8000e8:	db400e17 	ldw	r13,56(sp)
        ldw   r14, 60(sp)
  8000ec:	db800f17 	ldw	r14,60(sp)
        ldw   r15, 64(sp)
  8000f0:	dbc01017 	ldw	r15,64(sp)
        stw   et, %gprel(alt_stack_limit_value)(gp)
        stw   zero, %gprel(alt_exception_old_stack_limit)(gp)
#endif /* ALT_STACK_CHECK */
        ldw   sp,  76(sp)
#else /* ALT_EXCEPTION_STACK disabled */
        addi  sp, sp, 76
  8000f4:	dec01304 	addi	sp,sp,76

        /*
         * Return to the interrupted instruction.
         */

        eret
  8000f8:	ef80083a 	eret

008000fc <alt_irq_handler>:
 * instruction is present if the macro ALT_CI_INTERRUPT_VECTOR defined.
 */

void alt_irq_handler (void) __attribute__ ((section (".exceptions")));
void alt_irq_handler (void)
{
  8000fc:	defff904 	addi	sp,sp,-28
  800100:	dfc00615 	stw	ra,24(sp)
  800104:	df000515 	stw	fp,20(sp)
  800108:	df000504 	addi	fp,sp,20
  
  /*
   * Notify the operating system that we are at interrupt level.
   */ 
  
  ALT_OS_INT_ENTER();
  80010c:	0001883a 	nop
#ifndef NIOS2_EIC_PRESENT
static ALT_INLINE alt_u32 ALT_ALWAYS_INLINE alt_irq_pending (void)
{
  alt_u32 active;

  NIOS2_READ_IPENDING (active);
  800110:	0005313a 	rdctl	r2,ipending
  800114:	e0bffe15 	stw	r2,-8(fp)

  return active;
  800118:	e0bffe17 	ldw	r2,-8(fp)
   * Consider the case where the high priority interupt is asserted during
   * the interrupt entry sequence for a lower priority interrupt to see why
   * this is the case.
   */

  active = alt_irq_pending ();
  80011c:	e0bffb15 	stw	r2,-20(fp)

  do
  {
    i = 0;
  800120:	e03ffd15 	stw	zero,-12(fp)
    mask = 1;
  800124:	00800044 	movi	r2,1
  800128:	e0bffc15 	stw	r2,-16(fp)
     * called to clear the interrupt condition.
     */

    do
    {
      if (active & mask)
  80012c:	e0fffb17 	ldw	r3,-20(fp)
  800130:	e0bffc17 	ldw	r2,-16(fp)
  800134:	1884703a 	and	r2,r3,r2
  800138:	10001426 	beq	r2,zero,80018c <alt_irq_handler+0x90>
      { 
#ifdef ALT_ENHANCED_INTERRUPT_API_PRESENT
        alt_irq[i].handler(alt_irq[i].context); 
  80013c:	00802034 	movhi	r2,128
  800140:	10938e04 	addi	r2,r2,20024
  800144:	e0fffd17 	ldw	r3,-12(fp)
  800148:	180690fa 	slli	r3,r3,3
  80014c:	10c5883a 	add	r2,r2,r3
  800150:	10c00017 	ldw	r3,0(r2)
  800154:	00802034 	movhi	r2,128
  800158:	10938e04 	addi	r2,r2,20024
  80015c:	e13ffd17 	ldw	r4,-12(fp)
  800160:	200890fa 	slli	r4,r4,3
  800164:	1105883a 	add	r2,r2,r4
  800168:	10800104 	addi	r2,r2,4
  80016c:	10800017 	ldw	r2,0(r2)
  800170:	1009883a 	mov	r4,r2
  800174:	183ee83a 	callr	r3
#else
        alt_irq[i].handler(alt_irq[i].context, i); 
#endif
        break;
  800178:	0001883a 	nop
#ifndef NIOS2_EIC_PRESENT
static ALT_INLINE alt_u32 ALT_ALWAYS_INLINE alt_irq_pending (void)
{
  alt_u32 active;

  NIOS2_READ_IPENDING (active);
  80017c:	0005313a 	rdctl	r2,ipending
  800180:	e0bfff15 	stw	r2,-4(fp)

  return active;
  800184:	e0bfff17 	ldw	r2,-4(fp)
  800188:	00000706 	br	8001a8 <alt_irq_handler+0xac>
      }
      mask <<= 1;
  80018c:	e0bffc17 	ldw	r2,-16(fp)
  800190:	1085883a 	add	r2,r2,r2
  800194:	e0bffc15 	stw	r2,-16(fp)
      i++;
  800198:	e0bffd17 	ldw	r2,-12(fp)
  80019c:	10800044 	addi	r2,r2,1
  8001a0:	e0bffd15 	stw	r2,-12(fp)

    } while (1);
  8001a4:	003fe106 	br	80012c <__alt_data_end+0xff80012c>

    active = alt_irq_pending ();
  8001a8:	e0bffb15 	stw	r2,-20(fp)
    
  } while (active);
  8001ac:	e0bffb17 	ldw	r2,-20(fp)
  8001b0:	103fdb1e 	bne	r2,zero,800120 <__alt_data_end+0xff800120>

  /*
   * Notify the operating system that interrupt processing is complete.
   */ 

  ALT_OS_INT_EXIT();
  8001b4:	0001883a 	nop
}
  8001b8:	0001883a 	nop
  8001bc:	e037883a 	mov	sp,fp
  8001c0:	dfc00117 	ldw	ra,4(sp)
  8001c4:	df000017 	ldw	fp,0(sp)
  8001c8:	dec00204 	addi	sp,sp,8
  8001cc:	f800283a 	ret

008001d0 <alt_instruction_exception_entry>:
 * that handler if it has been registered. Absent a handler, it will
 * break break or hang as discussed below.
 */
int 
alt_instruction_exception_entry (alt_u32 exception_pc)
{
  8001d0:	defffb04 	addi	sp,sp,-20
  8001d4:	dfc00415 	stw	ra,16(sp)
  8001d8:	df000315 	stw	fp,12(sp)
  8001dc:	df000304 	addi	fp,sp,12
  8001e0:	e13fff15 	stw	r4,-4(fp)
  cause = ( (cause & NIOS2_EXCEPTION_REG_CAUSE_MASK) >>
              NIOS2_EXCEPTION_REG_CAUSE_OFST );

  NIOS2_READ_BADADDR(badaddr);
#else
  cause = NIOS2_EXCEPTION_CAUSE_NOT_PRESENT;
  8001e4:	00bfffc4 	movi	r2,-1
  8001e8:	e0bffd15 	stw	r2,-12(fp)
  badaddr = 0;
  8001ec:	e03ffe15 	stw	zero,-8(fp)
#endif /* NIOS2_HAS_EXTRA_EXCEPTION_INFO */

  if(alt_instruction_exception_handler) {
  8001f0:	d0a0d917 	ldw	r2,-31900(gp)
  8001f4:	10000726 	beq	r2,zero,800214 <alt_instruction_exception_entry+0x44>
     * Call handler. Its return value indicates whether the exception-causing
     * instruction should be re-issued. The code that called us,
     * alt_eceptions_entry.S, will look at this value and adjust the ea
     * register as necessary
     */
    return alt_instruction_exception_handler(cause, exception_pc, badaddr);
  8001f8:	d0a0d917 	ldw	r2,-31900(gp)
  8001fc:	e0fffd17 	ldw	r3,-12(fp)
  800200:	e1bffe17 	ldw	r6,-8(fp)
  800204:	e17fff17 	ldw	r5,-4(fp)
  800208:	1809883a 	mov	r4,r3
  80020c:	103ee83a 	callr	r2
  800210:	00000206 	br	80021c <alt_instruction_exception_entry+0x4c>
   *    (a peripheral which negates its interrupt output before its
   *    interrupt handler has been executed will cause spurious interrupts)
   */
  else {
#ifdef NIOS2_HAS_DEBUG_STUB
    NIOS2_BREAK();
  800214:	003da03a 	break	0
      ;
#endif /* NIOS2_HAS_DEBUG_STUB */
  }

  /* We should not get here. Remove compiler warning. */
  return NIOS2_EXCEPTION_RETURN_REISSUE_INST;
  800218:	0005883a 	mov	r2,zero
}
  80021c:	e037883a 	mov	sp,fp
  800220:	dfc00117 	ldw	ra,4(sp)
  800224:	df000017 	ldw	fp,0(sp)
  800228:	dec00204 	addi	sp,sp,8
  80022c:	f800283a 	ret

Disassembly of section .text:

00800230 <_start>:

    /*
     * Now that the caches are initialized, set up the stack pointer and global pointer.
     * The values provided by the linker are assumed to be correctly aligned.
     */
    movhi sp, %hi(__alt_stack_pointer)
  800230:	06c04034 	movhi	sp,256
    ori sp, sp, %lo(__alt_stack_pointer)
  800234:	dec00014 	ori	sp,sp,0
    movhi gp, %hi(_gp)
  800238:	06802034 	movhi	gp,128
    ori gp, gp, %lo(_gp)
  80023c:	d6b21414 	ori	gp,gp,51280
 */
#ifndef ALT_SIM_OPTIMIZE
    /* Log that the BSS is about to be cleared. */
    ALT_LOG_PUTS(alt_log_msg_bss)

    movhi r2, %hi(__bss_start)
  800240:	00802034 	movhi	r2,128
    ori r2, r2, %lo(__bss_start)
  800244:	1092e614 	ori	r2,r2,19352

    movhi r3, %hi(__bss_end)
  800248:	00c02034 	movhi	r3,128
    ori r3, r3, %lo(__bss_end)
  80024c:	18d3ce14 	ori	r3,r3,20280

    beq r2, r3, 1f
  800250:	10c00326 	beq	r2,r3,800260 <_start+0x30>

0:
    stw zero, (r2)
  800254:	10000015 	stw	zero,0(r2)
    addi r2, r2, 4
  800258:	10800104 	addi	r2,r2,4
    bltu r2, r3, 0b
  80025c:	10fffd36 	bltu	r2,r3,800254 <__alt_data_end+0xff800254>
     * section aren't defined until alt_load() has been called).
     */
    mov   et, zero
#endif

    call alt_load
  800260:	08026180 	call	802618 <alt_load>

    /* Log that alt_main is about to be called. */
    ALT_LOG_PUTS(alt_log_msg_alt_main)

    /* Call the C entry point. It should never return. */
    call alt_main
  800264:	080269c0 	call	80269c <alt_main>

00800268 <alt_after_alt_main>:

    /* Wait in infinite loop in case alt_main does return. */
alt_after_alt_main:
    br alt_after_alt_main
  800268:	003fff06 	br	800268 <__alt_data_end+0xff800268>

0080026c <main>:

enum sampling_state  {five_Hz_sampling, one_Hz_sampling,dot2_Hz_sampling};


int main(void)
{
  80026c:	defe5004 	addi	sp,sp,-1728
  800270:	dfc1af15 	stw	ra,1724(sp)
  800274:	df01ae15 	stw	fp,1720(sp)
  800278:	dc41ad15 	stw	r17,1716(sp)
  80027c:	dc01ac15 	stw	r16,1712(sp)
  800280:	df01ae04 	addi	fp,sp,1720
	print_welcome_screen(); 	//"Splashscreen"
  800284:	08022580 	call	802258 <print_welcome_screen>
	enum sampling_state state = one_Hz_sampling;
  800288:	00800044 	movi	r2,1
  80028c:	e0be5215 	stw	r2,-1720(fp)
	static QUEUE q1; //Before I had static the program could suddenly restart, after it had
	//QUEUE q2;      // drawn
	//QUEUE q3;
	static QUEUE q4;//Before I had static the program could suddenly restart
	static QUEUE q5;
	 QUEUE* q11 = &q1;
  800290:	00802034 	movhi	r2,128
  800294:	1092ef04 	addi	r2,r2,19388
  800298:	e0be5715 	stw	r2,-1700(fp)
	//QUEUE* q22 = &q2;
	//QUEUE* q33 = &q3;
	 QUEUE* q44 = &q4;
  80029c:	00802034 	movhi	r2,128
  8002a0:	10932404 	addi	r2,r2,19600
  8002a4:	e0be5815 	stw	r2,-1696(fp)
	 QUEUE* q55 = &q5;
  8002a8:	00802034 	movhi	r2,128
  8002ac:	10935904 	addi	r2,r2,19812
  8002b0:	e0be5915 	stw	r2,-1692(fp)



	 SENSOR_OBJECT accelorometerX = //Accelerometer X
  8002b4:	009958f4 	movhi	r2,25955
  8002b8:	1098d044 	addi	r2,r2,25409
  8002bc:	e0be5a15 	stw	r2,-1688(fp)
  8002c0:	009bdcb4 	movhi	r2,28530
  8002c4:	10995b04 	addi	r2,r2,25964
  8002c8:	e0be5b15 	stw	r2,-1684(fp)
  8002cc:	009e0834 	movhi	r2,30752
  8002d0:	108b9b44 	addi	r2,r2,11885
  8002d4:	e0be5c15 	stw	r2,-1680(fp)
  8002d8:	e03e5d15 	stw	zero,-1676(fp)
  8002dc:	e03e5e0d 	sth	zero,-1672(fp)
  8002e0:	e03e5e85 	stb	zero,-1670(fp)
  8002e4:	00800784 	movi	r2,30
  8002e8:	e0be5f15 	stw	r2,-1668(fp)
  8002ec:	00800c84 	movi	r2,50
  8002f0:	e0be6015 	stw	r2,-1664(fp)
  8002f4:	00800044 	movi	r2,1
  8002f8:	e0be6115 	stw	r2,-1660(fp)
  8002fc:	008f7374 	movhi	r2,15821
  800300:	10b33344 	addi	r2,r2,-13107
  800304:	e0be6215 	stw	r2,-1656(fp)
  800308:	00800784 	movi	r2,30
  80030c:	e0be6315 	stw	r2,-1652(fp)
  800310:	00800104 	movi	r2,4
  800314:	e0be6415 	stw	r2,-1648(fp)
  800318:	00802034 	movhi	r2,128
  80031c:	1092ef04 	addi	r2,r2,19388
  800320:	e0fe6504 	addi	r3,fp,-1644
  800324:	1009883a 	mov	r4,r2
  800328:	00803504 	movi	r2,212
  80032c:	100d883a 	mov	r6,r2
  800330:	200b883a 	mov	r5,r4
  800334:	1809883a 	mov	r4,r3
  800338:	080254c0 	call	80254c <memcpy>
  80033c:	e0be5717 	ldw	r2,-1700(fp)
  800340:	e0be9a15 	stw	r2,-1432(fp)
  800344:	00802034 	movhi	r2,128
  800348:	10840d04 	addi	r2,r2,4148
  80034c:	e0be9b15 	stw	r2,-1428(fp)
  800350:	00802034 	movhi	r2,128
  800354:	10841a04 	addi	r2,r2,4200
  800358:	e0be9c15 	stw	r2,-1424(fp)
  80035c:	00802034 	movhi	r2,128
  800360:	10849c04 	addi	r2,r2,4720
  800364:	e0be9d15 	stw	r2,-1420(fp)
  800368:	00802034 	movhi	r2,128
  80036c:	10847204 	addi	r2,r2,4552
  800370:	e0be9e15 	stw	r2,-1416(fp)
  800374:	00802034 	movhi	r2,128
  800378:	10842d04 	addi	r2,r2,4276
  80037c:	e0be9f15 	stw	r2,-1412(fp)
					update_graph,
					&accelorometerZ,
					draw_graph
				};
*/
	 SENSOR_OBJECT temp_sensor =				//Temperatur sensorn
  800380:	009c1b74 	movhi	r2,28781
  800384:	10995504 	addi	r2,r2,25940
  800388:	e0bea015 	stw	r2,-1408(fp)
  80038c:	009d1874 	movhi	r2,29793
  800390:	109c9944 	addi	r2,r2,29285
  800394:	e0bea115 	stw	r2,-1404(fp)
  800398:	00801974 	movhi	r2,101
  80039c:	109c9d44 	addi	r2,r2,29301
  8003a0:	e0bea215 	stw	r2,-1400(fp)
  8003a4:	e03ea315 	stw	zero,-1396(fp)
  8003a8:	e03ea40d 	sth	zero,-1392(fp)
  8003ac:	e03ea485 	stb	zero,-1390(fp)
  8003b0:	00800784 	movi	r2,30
  8003b4:	e0bea515 	stw	r2,-1388(fp)
  8003b8:	00802d04 	movi	r2,180
  8003bc:	e0bea615 	stw	r2,-1384(fp)
  8003c0:	00800044 	movi	r2,1
  8003c4:	e0bea715 	stw	r2,-1380(fp)
  8003c8:	0090b234 	movhi	r2,17096
  8003cc:	e0bea815 	stw	r2,-1376(fp)
  8003d0:	00800284 	movi	r2,10
  8003d4:	e0bea915 	stw	r2,-1372(fp)
  8003d8:	00800104 	movi	r2,4
  8003dc:	e0beaa15 	stw	r2,-1368(fp)
  8003e0:	00802034 	movhi	r2,128
  8003e4:	10932404 	addi	r2,r2,19600
  8003e8:	e0feab04 	addi	r3,fp,-1364
  8003ec:	1009883a 	mov	r4,r2
  8003f0:	00803504 	movi	r2,212
  8003f4:	100d883a 	mov	r6,r2
  8003f8:	200b883a 	mov	r5,r4
  8003fc:	1809883a 	mov	r4,r3
  800400:	080254c0 	call	80254c <memcpy>
  800404:	e0be5817 	ldw	r2,-1696(fp)
  800408:	e0bee015 	stw	r2,-1152(fp)
  80040c:	00802034 	movhi	r2,128
  800410:	10840d04 	addi	r2,r2,4148
  800414:	e0bee115 	stw	r2,-1148(fp)
  800418:	00802034 	movhi	r2,128
  80041c:	10841a04 	addi	r2,r2,4200
  800420:	e0bee215 	stw	r2,-1144(fp)
  800424:	00802034 	movhi	r2,128
  800428:	1083cd04 	addi	r2,r2,3892
  80042c:	e0bee315 	stw	r2,-1140(fp)
  800430:	00802034 	movhi	r2,128
  800434:	10847204 	addi	r2,r2,4552
  800438:	e0bee415 	stw	r2,-1136(fp)
  80043c:	00802034 	movhi	r2,128
  800440:	10842d04 	addi	r2,r2,4276
  800444:	e0bee515 	stw	r2,-1132(fp)
						update_graph,
						//&temp_sensor,
						draw_graph
					};

	 SENSOR_OBJECT light_sensor =			//Ljussensorn
  800448:	009a19f4 	movhi	r2,26727
  80044c:	109a5304 	addi	r2,r2,26956
  800450:	e0bee615 	stw	r2,-1128(fp)
  800454:	00801d04 	movi	r2,116
  800458:	e0bee715 	stw	r2,-1124(fp)
  80045c:	e03ee815 	stw	zero,-1120(fp)
  800460:	e03ee915 	stw	zero,-1116(fp)
  800464:	e03eea0d 	sth	zero,-1112(fp)
  800468:	e03eea85 	stb	zero,-1110(fp)
  80046c:	00802204 	movi	r2,136
  800470:	e0beeb15 	stw	r2,-1108(fp)
  800474:	00802d04 	movi	r2,180
  800478:	e0beec15 	stw	r2,-1104(fp)
  80047c:	00800044 	movi	r2,1
  800480:	e0beed15 	stw	r2,-1100(fp)
  800484:	0090b234 	movhi	r2,17096
  800488:	e0beee15 	stw	r2,-1096(fp)
  80048c:	00800284 	movi	r2,10
  800490:	e0beef15 	stw	r2,-1092(fp)
  800494:	00800104 	movi	r2,4
  800498:	e0bef015 	stw	r2,-1088(fp)
  80049c:	00802034 	movhi	r2,128
  8004a0:	10935904 	addi	r2,r2,19812
  8004a4:	e0fef104 	addi	r3,fp,-1084
  8004a8:	1009883a 	mov	r4,r2
  8004ac:	00803504 	movi	r2,212
  8004b0:	100d883a 	mov	r6,r2
  8004b4:	200b883a 	mov	r5,r4
  8004b8:	1809883a 	mov	r4,r3
  8004bc:	080254c0 	call	80254c <memcpy>
  8004c0:	e0be5917 	ldw	r2,-1692(fp)
  8004c4:	e0bf2615 	stw	r2,-872(fp)
  8004c8:	00802034 	movhi	r2,128
  8004cc:	10840d04 	addi	r2,r2,4148
  8004d0:	e0bf2715 	stw	r2,-868(fp)
  8004d4:	00802034 	movhi	r2,128
  8004d8:	10841a04 	addi	r2,r2,4200
  8004dc:	e0bf2815 	stw	r2,-864(fp)
  8004e0:	00802034 	movhi	r2,128
  8004e4:	1083ed04 	addi	r2,r2,4020
  8004e8:	e0bf2915 	stw	r2,-860(fp)
  8004ec:	00802034 	movhi	r2,128
  8004f0:	10847204 	addi	r2,r2,4552
  8004f4:	e0bf2a15 	stw	r2,-856(fp)
  8004f8:	00802034 	movhi	r2,128
  8004fc:	10842d04 	addi	r2,r2,4276
  800500:	e0bf2b15 	stw	r2,-852(fp)
							accelorometerY,
							accelorometerZ,
							temp_sensor,
							light_sensor};*/

	 SENSOR_OBJECT sensors[3]={accelorometerX,		//Array med sensor-objekt
  800504:	e0bf2c04 	addi	r2,fp,-848
  800508:	e0fe5a04 	addi	r3,fp,-1688
  80050c:	01004604 	movi	r4,280
  800510:	200d883a 	mov	r6,r4
  800514:	180b883a 	mov	r5,r3
  800518:	1009883a 	mov	r4,r2
  80051c:	080254c0 	call	80254c <memcpy>
  800520:	e0bf7204 	addi	r2,fp,-568
  800524:	e0fea004 	addi	r3,fp,-1408
  800528:	01004604 	movi	r4,280
  80052c:	200d883a 	mov	r6,r4
  800530:	180b883a 	mov	r5,r3
  800534:	1009883a 	mov	r4,r2
  800538:	080254c0 	call	80254c <memcpy>
  80053c:	e0bfb804 	addi	r2,fp,-288
  800540:	e0fee604 	addi	r3,fp,-1128
  800544:	01004604 	movi	r4,280
  800548:	200d883a 	mov	r6,r4
  80054c:	180b883a 	mov	r5,r3
  800550:	1009883a 	mov	r4,r2
  800554:	080254c0 	call	80254c <memcpy>
							  };


//Routin which clear screen and writes possibel sampling frquency at low-right
//of the screen
	 draw_sampling_frequecy_sub_screen();
  800558:	08019240 	call	801924 <draw_sampling_frequecy_sub_screen>


//Initiering av sensorerna
		for(int i = 0; i<3; i++)
  80055c:	e03e5315 	stw	zero,-1716(fp)
  800560:	00001206 	br	8005ac <main+0x340>
			sensors[i].init_measurement(&sensors[i]);
  800564:	e0be5317 	ldw	r2,-1716(fp)
  800568:	01404604 	movi	r5,280
  80056c:	1009883a 	mov	r4,r2
  800570:	08024b40 	call	8024b4 <__mulsi3>
  800574:	e0fe5204 	addi	r3,fp,-1720
  800578:	1885883a 	add	r2,r3,r2
  80057c:	10811c04 	addi	r2,r2,1136
  800580:	14000017 	ldw	r16,0(r2)
  800584:	e47f2c04 	addi	r17,fp,-848
  800588:	01404604 	movi	r5,280
  80058c:	e13e5317 	ldw	r4,-1716(fp)
  800590:	08024b40 	call	8024b4 <__mulsi3>
  800594:	8885883a 	add	r2,r17,r2
  800598:	1009883a 	mov	r4,r2
  80059c:	803ee83a 	callr	r16
//of the screen
	 draw_sampling_frequecy_sub_screen();


//Initiering av sensorerna
		for(int i = 0; i<3; i++)
  8005a0:	e0be5317 	ldw	r2,-1716(fp)
  8005a4:	10800044 	addi	r2,r2,1
  8005a8:	e0be5315 	stw	r2,-1716(fp)
  8005ac:	e0be5317 	ldw	r2,-1716(fp)
  8005b0:	108000d0 	cmplti	r2,r2,3
  8005b4:	103feb1e 	bne	r2,zero,800564 <__alt_data_end+0xff800564>

	while(1)
	{

//Check which sampling frequency the user wants
		if(IORD_32DIRECT(KEY_INPUT_BASE,0) == 6)//first button
  8005b8:	00804234 	movhi	r2,264
  8005bc:	10848804 	addi	r2,r2,4640
  8005c0:	10800037 	ldwio	r2,0(r2)
  8005c4:	10800198 	cmpnei	r2,r2,6
  8005c8:	1000011e 	bne	r2,zero,8005d0 <main+0x364>
			state = five_Hz_sampling;
  8005cc:	e03e5215 	stw	zero,-1720(fp)
		if(IORD_32DIRECT(KEY_INPUT_BASE,0) == 5)//snd button
  8005d0:	00804234 	movhi	r2,264
  8005d4:	10848804 	addi	r2,r2,4640
  8005d8:	10800037 	ldwio	r2,0(r2)
  8005dc:	10800158 	cmpnei	r2,r2,5
  8005e0:	1000021e 	bne	r2,zero,8005ec <main+0x380>
			state = one_Hz_sampling;
  8005e4:	00800044 	movi	r2,1
  8005e8:	e0be5215 	stw	r2,-1720(fp)
		if(IORD_32DIRECT(KEY_INPUT_BASE,0) == 3)//third button
  8005ec:	00804234 	movhi	r2,264
  8005f0:	10848804 	addi	r2,r2,4640
  8005f4:	10800037 	ldwio	r2,0(r2)
  8005f8:	108000d8 	cmpnei	r2,r2,3
  8005fc:	1000021e 	bne	r2,zero,800608 <main+0x39c>
					state = dot2_Hz_sampling;
  800600:	00800084 	movi	r2,2
  800604:	e0be5215 	stw	r2,-1720(fp)

		switch(state)
  800608:	e0be5217 	ldw	r2,-1720(fp)
  80060c:	10c00060 	cmpeqi	r3,r2,1
  800610:	18003f1e 	bne	r3,zero,800710 <main+0x4a4>
  800614:	0080032e 	bgeu	zero,r2,800624 <main+0x3b8>
  800618:	108000a0 	cmpeqi	r2,r2,2
  80061c:	1000771e 	bne	r2,zero,8007fc <main+0x590>
  800620:	0000b106 	br	8008e8 <main+0x67c>
#ifdef DEBUG
			alt_printf("5Hz sampling\n");

#endif
//Highlite the text for the samplingfrequency 5Hz
			high_lite_5Hz_sampling_on_screen();
  800624:	08018500 	call	801850 <high_lite_5Hz_sampling_on_screen>

			for(int i = 0; i<3; i++)
  800628:	e03e5415 	stw	zero,-1712(fp)
  80062c:	00003406 	br	800700 <main+0x494>
			{
				sensors[i].configure_time_base(1,&sensors[i]);//För att illustrera koncept.Onödig.
  800630:	e0be5417 	ldw	r2,-1712(fp)
  800634:	01404604 	movi	r5,280
  800638:	1009883a 	mov	r4,r2
  80063c:	08024b40 	call	8024b4 <__mulsi3>
  800640:	e0fe5204 	addi	r3,fp,-1720
  800644:	1885883a 	add	r2,r3,r2
  800648:	10811b04 	addi	r2,r2,1132
  80064c:	14000017 	ldw	r16,0(r2)
  800650:	e47f2c04 	addi	r17,fp,-848
  800654:	01404604 	movi	r5,280
  800658:	e13e5417 	ldw	r4,-1712(fp)
  80065c:	08024b40 	call	8024b4 <__mulsi3>
  800660:	8885883a 	add	r2,r17,r2
  800664:	100b883a 	mov	r5,r2
  800668:	01000044 	movi	r4,1
  80066c:	803ee83a 	callr	r16
				sensors[i].read_sensor(sensors[i].q);   	  //Läs sensor
  800670:	e0be5417 	ldw	r2,-1712(fp)
  800674:	01404604 	movi	r5,280
  800678:	1009883a 	mov	r4,r2
  80067c:	08024b40 	call	8024b4 <__mulsi3>
  800680:	e0fe5204 	addi	r3,fp,-1720
  800684:	1885883a 	add	r2,r3,r2
  800688:	10811d04 	addi	r2,r2,1140
  80068c:	14000017 	ldw	r16,0(r2)
  800690:	e0be5417 	ldw	r2,-1712(fp)
  800694:	01404604 	movi	r5,280
  800698:	1009883a 	mov	r4,r2
  80069c:	08024b40 	call	8024b4 <__mulsi3>
  8006a0:	e0fe5204 	addi	r3,fp,-1720
  8006a4:	1885883a 	add	r2,r3,r2
  8006a8:	10811a04 	addi	r2,r2,1128
  8006ac:	10800017 	ldw	r2,0(r2)
  8006b0:	1009883a 	mov	r4,r2
  8006b4:	803ee83a 	callr	r16
				sensors[i].update_graph(&sensors[i]);		  //Updatera korresponderande graf
  8006b8:	e0be5417 	ldw	r2,-1712(fp)
  8006bc:	01404604 	movi	r5,280
  8006c0:	1009883a 	mov	r4,r2
  8006c4:	08024b40 	call	8024b4 <__mulsi3>
  8006c8:	e0fe5204 	addi	r3,fp,-1720
  8006cc:	1885883a 	add	r2,r3,r2
  8006d0:	10811e04 	addi	r2,r2,1144
  8006d4:	14000017 	ldw	r16,0(r2)
  8006d8:	e47f2c04 	addi	r17,fp,-848
  8006dc:	01404604 	movi	r5,280
  8006e0:	e13e5417 	ldw	r4,-1712(fp)
  8006e4:	08024b40 	call	8024b4 <__mulsi3>
  8006e8:	8885883a 	add	r2,r17,r2
  8006ec:	1009883a 	mov	r4,r2
  8006f0:	803ee83a 	callr	r16

#endif
//Highlite the text for the samplingfrequency 5Hz
			high_lite_5Hz_sampling_on_screen();

			for(int i = 0; i<3; i++)
  8006f4:	e0be5417 	ldw	r2,-1712(fp)
  8006f8:	10800044 	addi	r2,r2,1
  8006fc:	e0be5415 	stw	r2,-1712(fp)
  800700:	e0be5417 	ldw	r2,-1712(fp)
  800704:	108000d0 	cmplti	r2,r2,3
  800708:	103fc91e 	bne	r2,zero,800630 <__alt_data_end+0xff800630>
			{
				sensors[i].configure_time_base(1,&sensors[i]);//För att illustrera koncept.Onödig.
				sensors[i].read_sensor(sensors[i].q);   	  //Läs sensor
				sensors[i].update_graph(&sensors[i]);		  //Updatera korresponderande graf
			}
			break;
  80070c:	00007606 	br	8008e8 <main+0x67c>
		case one_Hz_sampling:
#ifdef DEBUG
			alt_printf("slow\n");

#endif
			high_lite_1Hz_sampling_on_screen();
  800710:	080177c0 	call	80177c <high_lite_1Hz_sampling_on_screen>

			for(int i = 0; i<3; i++)
  800714:	e03e5515 	stw	zero,-1708(fp)
  800718:	00003406 	br	8007ec <main+0x580>
			{
				sensors[i].configure_time_base(10,&sensors[i]);//För att illustrera koncept.Onödig.
  80071c:	e0be5517 	ldw	r2,-1708(fp)
  800720:	01404604 	movi	r5,280
  800724:	1009883a 	mov	r4,r2
  800728:	08024b40 	call	8024b4 <__mulsi3>
  80072c:	e0fe5204 	addi	r3,fp,-1720
  800730:	1885883a 	add	r2,r3,r2
  800734:	10811b04 	addi	r2,r2,1132
  800738:	14000017 	ldw	r16,0(r2)
  80073c:	e47f2c04 	addi	r17,fp,-848
  800740:	01404604 	movi	r5,280
  800744:	e13e5517 	ldw	r4,-1708(fp)
  800748:	08024b40 	call	8024b4 <__mulsi3>
  80074c:	8885883a 	add	r2,r17,r2
  800750:	100b883a 	mov	r5,r2
  800754:	01000284 	movi	r4,10
  800758:	803ee83a 	callr	r16
				sensors[i].read_sensor(sensors[i].q);			//Läs sensor
  80075c:	e0be5517 	ldw	r2,-1708(fp)
  800760:	01404604 	movi	r5,280
  800764:	1009883a 	mov	r4,r2
  800768:	08024b40 	call	8024b4 <__mulsi3>
  80076c:	e0fe5204 	addi	r3,fp,-1720
  800770:	1885883a 	add	r2,r3,r2
  800774:	10811d04 	addi	r2,r2,1140
  800778:	14000017 	ldw	r16,0(r2)
  80077c:	e0be5517 	ldw	r2,-1708(fp)
  800780:	01404604 	movi	r5,280
  800784:	1009883a 	mov	r4,r2
  800788:	08024b40 	call	8024b4 <__mulsi3>
  80078c:	e0fe5204 	addi	r3,fp,-1720
  800790:	1885883a 	add	r2,r3,r2
  800794:	10811a04 	addi	r2,r2,1128
  800798:	10800017 	ldw	r2,0(r2)
  80079c:	1009883a 	mov	r4,r2
  8007a0:	803ee83a 	callr	r16
				sensors[i].update_graph(&sensors[i]);			//Updatera korresponderande graf
  8007a4:	e0be5517 	ldw	r2,-1708(fp)
  8007a8:	01404604 	movi	r5,280
  8007ac:	1009883a 	mov	r4,r2
  8007b0:	08024b40 	call	8024b4 <__mulsi3>
  8007b4:	e0fe5204 	addi	r3,fp,-1720
  8007b8:	1885883a 	add	r2,r3,r2
  8007bc:	10811e04 	addi	r2,r2,1144
  8007c0:	14000017 	ldw	r16,0(r2)
  8007c4:	e47f2c04 	addi	r17,fp,-848
  8007c8:	01404604 	movi	r5,280
  8007cc:	e13e5517 	ldw	r4,-1708(fp)
  8007d0:	08024b40 	call	8024b4 <__mulsi3>
  8007d4:	8885883a 	add	r2,r17,r2
  8007d8:	1009883a 	mov	r4,r2
  8007dc:	803ee83a 	callr	r16
			alt_printf("slow\n");

#endif
			high_lite_1Hz_sampling_on_screen();

			for(int i = 0; i<3; i++)
  8007e0:	e0be5517 	ldw	r2,-1708(fp)
  8007e4:	10800044 	addi	r2,r2,1
  8007e8:	e0be5515 	stw	r2,-1708(fp)
  8007ec:	e0be5517 	ldw	r2,-1708(fp)
  8007f0:	108000d0 	cmplti	r2,r2,3
  8007f4:	103fc91e 	bne	r2,zero,80071c <__alt_data_end+0xff80071c>
			{
				sensors[i].configure_time_base(10,&sensors[i]);//För att illustrera koncept.Onödig.
				sensors[i].read_sensor(sensors[i].q);			//Läs sensor
				sensors[i].update_graph(&sensors[i]);			//Updatera korresponderande graf
			}
           break;
  8007f8:	00003b06 	br	8008e8 <main+0x67c>
		case dot2_Hz_sampling:
		#ifdef DEBUG
					alt_printf("0.5 sampling rate\n");

		#endif
					high_lite_dot2Hz_sampling_on_screen();
  8007fc:	08016a80 	call	8016a8 <high_lite_dot2Hz_sampling_on_screen>

					for(int i = 0; i<3; i++)
  800800:	e03e5615 	stw	zero,-1704(fp)
  800804:	00003406 	br	8008d8 <main+0x66c>
					{
						sensors[i].configure_time_base(10,&sensors[i]);//För att illustrera koncept.Onödig.
  800808:	e0be5617 	ldw	r2,-1704(fp)
  80080c:	01404604 	movi	r5,280
  800810:	1009883a 	mov	r4,r2
  800814:	08024b40 	call	8024b4 <__mulsi3>
  800818:	e0fe5204 	addi	r3,fp,-1720
  80081c:	1885883a 	add	r2,r3,r2
  800820:	10811b04 	addi	r2,r2,1132
  800824:	14000017 	ldw	r16,0(r2)
  800828:	e47f2c04 	addi	r17,fp,-848
  80082c:	01404604 	movi	r5,280
  800830:	e13e5617 	ldw	r4,-1704(fp)
  800834:	08024b40 	call	8024b4 <__mulsi3>
  800838:	8885883a 	add	r2,r17,r2
  80083c:	100b883a 	mov	r5,r2
  800840:	01000284 	movi	r4,10
  800844:	803ee83a 	callr	r16
						sensors[i].read_sensor(sensors[i].q);			//Läs sensor
  800848:	e0be5617 	ldw	r2,-1704(fp)
  80084c:	01404604 	movi	r5,280
  800850:	1009883a 	mov	r4,r2
  800854:	08024b40 	call	8024b4 <__mulsi3>
  800858:	e0fe5204 	addi	r3,fp,-1720
  80085c:	1885883a 	add	r2,r3,r2
  800860:	10811d04 	addi	r2,r2,1140
  800864:	14000017 	ldw	r16,0(r2)
  800868:	e0be5617 	ldw	r2,-1704(fp)
  80086c:	01404604 	movi	r5,280
  800870:	1009883a 	mov	r4,r2
  800874:	08024b40 	call	8024b4 <__mulsi3>
  800878:	e0fe5204 	addi	r3,fp,-1720
  80087c:	1885883a 	add	r2,r3,r2
  800880:	10811a04 	addi	r2,r2,1128
  800884:	10800017 	ldw	r2,0(r2)
  800888:	1009883a 	mov	r4,r2
  80088c:	803ee83a 	callr	r16
						sensors[i].update_graph(&sensors[i]);			//Updatera korresponderande graf
  800890:	e0be5617 	ldw	r2,-1704(fp)
  800894:	01404604 	movi	r5,280
  800898:	1009883a 	mov	r4,r2
  80089c:	08024b40 	call	8024b4 <__mulsi3>
  8008a0:	e0fe5204 	addi	r3,fp,-1720
  8008a4:	1885883a 	add	r2,r3,r2
  8008a8:	10811e04 	addi	r2,r2,1144
  8008ac:	14000017 	ldw	r16,0(r2)
  8008b0:	e47f2c04 	addi	r17,fp,-848
  8008b4:	01404604 	movi	r5,280
  8008b8:	e13e5617 	ldw	r4,-1704(fp)
  8008bc:	08024b40 	call	8024b4 <__mulsi3>
  8008c0:	8885883a 	add	r2,r17,r2
  8008c4:	1009883a 	mov	r4,r2
  8008c8:	803ee83a 	callr	r16
					alt_printf("0.5 sampling rate\n");

		#endif
					high_lite_dot2Hz_sampling_on_screen();

					for(int i = 0; i<3; i++)
  8008cc:	e0be5617 	ldw	r2,-1704(fp)
  8008d0:	10800044 	addi	r2,r2,1
  8008d4:	e0be5615 	stw	r2,-1704(fp)
  8008d8:	e0be5617 	ldw	r2,-1704(fp)
  8008dc:	108000d0 	cmplti	r2,r2,3
  8008e0:	103fc91e 	bne	r2,zero,800808 <__alt_data_end+0xff800808>
					{
						sensors[i].configure_time_base(10,&sensors[i]);//För att illustrera koncept.Onödig.
						sensors[i].read_sensor(sensors[i].q);			//Läs sensor
						sensors[i].update_graph(&sensors[i]);			//Updatera korresponderande graf
					}
		           break;
  8008e4:	0001883a 	nop
		}//switch
	}//while
  8008e8:	003f3306 	br	8005b8 <__alt_data_end+0xff8005b8>

008008ec <queue_init>:
// */

#include "sensor.h"

void queue_init(QUEUE *q)
{
  8008ec:	defffc04 	addi	sp,sp,-16
  8008f0:	dfc00315 	stw	ra,12(sp)
  8008f4:	df000215 	stw	fp,8(sp)
  8008f8:	df000204 	addi	fp,sp,8
  8008fc:	e13fff15 	stw	r4,-4(fp)
    memset(q,0,sizeof(QUEUE)); //Zeroing the array
  800900:	01803504 	movi	r6,212
  800904:	000b883a 	mov	r5,zero
  800908:	e13fff17 	ldw	r4,-4(fp)
  80090c:	08025740 	call	802574 <memset>
    q->rindex = 0;//Probably un-necessay to do this, because of the above line
  800910:	e0bfff17 	ldw	r2,-4(fp)
  800914:	10003215 	stw	zero,200(r2)
    q->windex = 0;
  800918:	e0bfff17 	ldw	r2,-4(fp)
  80091c:	10003315 	stw	zero,204(r2)
    q->numitems = 0;
  800920:	e0bfff17 	ldw	r2,-4(fp)
  800924:	10003415 	stw	zero,208(r2)
    for(int i = 0; i < QUEUESIZE; i++ )
  800928:	e03ffe15 	stw	zero,-8(fp)
  80092c:	00000906 	br	800954 <queue_init+0x68>
    	q->items[i] = 0;
  800930:	e0ffff17 	ldw	r3,-4(fp)
  800934:	e0bffe17 	ldw	r2,-8(fp)
  800938:	1085883a 	add	r2,r2,r2
  80093c:	1085883a 	add	r2,r2,r2
  800940:	1885883a 	add	r2,r3,r2
  800944:	10000015 	stw	zero,0(r2)
{
    memset(q,0,sizeof(QUEUE)); //Zeroing the array
    q->rindex = 0;//Probably un-necessay to do this, because of the above line
    q->windex = 0;
    q->numitems = 0;
    for(int i = 0; i < QUEUESIZE; i++ )
  800948:	e0bffe17 	ldw	r2,-8(fp)
  80094c:	10800044 	addi	r2,r2,1
  800950:	e0bffe15 	stw	r2,-8(fp)
  800954:	e0bffe17 	ldw	r2,-8(fp)
  800958:	10800c90 	cmplti	r2,r2,50
  80095c:	103ff41e 	bne	r2,zero,800930 <__alt_data_end+0xff800930>
    	q->items[i] = 0;
}
  800960:	0001883a 	nop
  800964:	e037883a 	mov	sp,fp
  800968:	dfc00117 	ldw	ra,4(sp)
  80096c:	df000017 	ldw	fp,0(sp)
  800970:	dec00204 	addi	sp,sp,8
  800974:	f800283a 	ret

00800978 <queue_enqueue>:

alt_32 queue_enqueue(QUEUE *q, alt_32 item)
{
  800978:	deffc804 	addi	sp,sp,-224
  80097c:	dfc03715 	stw	ra,220(sp)
  800980:	df003615 	stw	fp,216(sp)
  800984:	df003604 	addi	fp,sp,216
  800988:	e13ffe15 	stw	r4,-8(fp)
  80098c:	e17fff15 	stw	r5,-4(fp)
    alt_u32 num_items = q->numitems;
  800990:	e0bffe17 	ldw	r2,-8(fp)
  800994:	10803417 	ldw	r2,208(r2)
  800998:	e0bfcb15 	stw	r2,-212(fp)
    //int* temp_array;
    alt_32 temp_array[QUEUESIZE]={0};//Zeroing, does it work?
  80099c:	e0bfcc04 	addi	r2,fp,-208
  8009a0:	00c03204 	movi	r3,200
  8009a4:	180d883a 	mov	r6,r3
  8009a8:	000b883a 	mov	r5,zero
  8009ac:	1009883a 	mov	r4,r2
  8009b0:	08025740 	call	802574 <memset>
    int i;
    for( i = 0; i < QUEUESIZE; i++ )//Zeroing again just for sure
  8009b4:	e03fca15 	stw	zero,-216(fp)
  8009b8:	00000a06 	br	8009e4 <queue_enqueue+0x6c>
    	temp_array[i] = 0;
  8009bc:	e0bfca17 	ldw	r2,-216(fp)
  8009c0:	1085883a 	add	r2,r2,r2
  8009c4:	1085883a 	add	r2,r2,r2
  8009c8:	e0ffca04 	addi	r3,fp,-216
  8009cc:	1885883a 	add	r2,r3,r2
  8009d0:	10800204 	addi	r2,r2,8
  8009d4:	10000015 	stw	zero,0(r2)
{
    alt_u32 num_items = q->numitems;
    //int* temp_array;
    alt_32 temp_array[QUEUESIZE]={0};//Zeroing, does it work?
    int i;
    for( i = 0; i < QUEUESIZE; i++ )//Zeroing again just for sure
  8009d8:	e0bfca17 	ldw	r2,-216(fp)
  8009dc:	10800044 	addi	r2,r2,1
  8009e0:	e0bfca15 	stw	r2,-216(fp)
  8009e4:	e0bfca17 	ldw	r2,-216(fp)
  8009e8:	10800c90 	cmplti	r2,r2,50
  8009ec:	103ff31e 	bne	r2,zero,8009bc <__alt_data_end+0xff8009bc>
    	temp_array[i] = 0;
    //memset(temp_array,0,sizeof(temp_array));//Zeroing just for bughunt

    if(num_items < QUEUESIZE)           //Check to see if the queue is not filled
  8009f0:	e0bfcb17 	ldw	r2,-212(fp)
  8009f4:	10800ca8 	cmpgeui	r2,r2,50
  8009f8:	10003c1e 	bne	r2,zero,800aec <queue_enqueue+0x174>
    //  num_items is allowed to reach QUEUESIZE -1 as maximum
    {

    	//At maximum QUEUESIZE-1 items are copied.
    	for(i = 0; i < num_items; i++)
  8009fc:	e03fca15 	stw	zero,-216(fp)
  800a00:	00001006 	br	800a44 <queue_enqueue+0xcc>
            temp_array[i]= q->items[i];       //Copy the queue to temp array
  800a04:	e0fffe17 	ldw	r3,-8(fp)
  800a08:	e0bfca17 	ldw	r2,-216(fp)
  800a0c:	1085883a 	add	r2,r2,r2
  800a10:	1085883a 	add	r2,r2,r2
  800a14:	1885883a 	add	r2,r3,r2
  800a18:	10c00017 	ldw	r3,0(r2)
  800a1c:	e0bfca17 	ldw	r2,-216(fp)
  800a20:	1085883a 	add	r2,r2,r2
  800a24:	1085883a 	add	r2,r2,r2
  800a28:	e13fca04 	addi	r4,fp,-216
  800a2c:	2085883a 	add	r2,r4,r2
  800a30:	10800204 	addi	r2,r2,8
  800a34:	10c00015 	stw	r3,0(r2)
    if(num_items < QUEUESIZE)           //Check to see if the queue is not filled
    //  num_items is allowed to reach QUEUESIZE -1 as maximum
    {

    	//At maximum QUEUESIZE-1 items are copied.
    	for(i = 0; i < num_items; i++)
  800a38:	e0bfca17 	ldw	r2,-216(fp)
  800a3c:	10800044 	addi	r2,r2,1
  800a40:	e0bfca15 	stw	r2,-216(fp)
  800a44:	e0ffca17 	ldw	r3,-216(fp)
  800a48:	e0bfcb17 	ldw	r2,-212(fp)
  800a4c:	18bfed36 	bltu	r3,r2,800a04 <__alt_data_end+0xff800a04>
            temp_array[i]= q->items[i];       //Copy the queue to temp array

        q->items[0] = item;                    //Insert the new item in the queue, always at index 0
  800a50:	e0bffe17 	ldw	r2,-8(fp)
  800a54:	e0ffff17 	ldw	r3,-4(fp)
  800a58:	10c00015 	stw	r3,0(r2)

        //Here i goes up to i < num_item +1 = QUEUESIZE -1 +1 = QUEUESIZE
        //thus for loop below goes as high as i < QUEUESIZE
        //for loop places items on index 1 until index QUEUESIZE-1
        for ( i = 1; i < num_items +1; i++)     //Copy back the items from temp array
  800a5c:	00800044 	movi	r2,1
  800a60:	e0bfca15 	stw	r2,-216(fp)
  800a64:	00001106 	br	800aac <queue_enqueue+0x134>
            q->items[i] = temp_array[i-1];
  800a68:	e0bfca17 	ldw	r2,-216(fp)
  800a6c:	10bfffc4 	addi	r2,r2,-1
  800a70:	1085883a 	add	r2,r2,r2
  800a74:	1085883a 	add	r2,r2,r2
  800a78:	e0ffca04 	addi	r3,fp,-216
  800a7c:	1885883a 	add	r2,r3,r2
  800a80:	10800204 	addi	r2,r2,8
  800a84:	10c00017 	ldw	r3,0(r2)
  800a88:	e13ffe17 	ldw	r4,-8(fp)
  800a8c:	e0bfca17 	ldw	r2,-216(fp)
  800a90:	1085883a 	add	r2,r2,r2
  800a94:	1085883a 	add	r2,r2,r2
  800a98:	2085883a 	add	r2,r4,r2
  800a9c:	10c00015 	stw	r3,0(r2)
        q->items[0] = item;                    //Insert the new item in the queue, always at index 0

        //Here i goes up to i < num_item +1 = QUEUESIZE -1 +1 = QUEUESIZE
        //thus for loop below goes as high as i < QUEUESIZE
        //for loop places items on index 1 until index QUEUESIZE-1
        for ( i = 1; i < num_items +1; i++)     //Copy back the items from temp array
  800aa0:	e0bfca17 	ldw	r2,-216(fp)
  800aa4:	10800044 	addi	r2,r2,1
  800aa8:	e0bfca15 	stw	r2,-216(fp)
  800aac:	e0bfcb17 	ldw	r2,-212(fp)
  800ab0:	10800044 	addi	r2,r2,1
  800ab4:	e0ffca17 	ldw	r3,-216(fp)
  800ab8:	18bfeb36 	bltu	r3,r2,800a68 <__alt_data_end+0xff800a68>
            q->items[i] = temp_array[i-1];
        //After the above for-loop items are placed from index 0
        //to as high as index QUEUESIZE -1, THUS QUEUESIZE NO. OF ELEMENTS ARE PLACED
        //AT MAXIMUM!

        q->numitems++;                          //increment the number of items
  800abc:	e0bffe17 	ldw	r2,-8(fp)
  800ac0:	10803417 	ldw	r2,208(r2)
  800ac4:	10c00044 	addi	r3,r2,1
  800ac8:	e0bffe17 	ldw	r2,-8(fp)
  800acc:	10c03415 	stw	r3,208(r2)
        q->rindex++;                            //Increment the queue pointer so it points to the next free position in the queue
  800ad0:	e0bffe17 	ldw	r2,-8(fp)
  800ad4:	10803217 	ldw	r2,200(r2)
  800ad8:	10c00044 	addi	r3,r2,1
  800adc:	e0bffe17 	ldw	r2,-8(fp)
  800ae0:	10c03215 	stw	r3,200(r2)
        return 1;                               //The enqueue succeeded
  800ae4:	00800044 	movi	r2,1
  800ae8:	00000106 	br	800af0 <queue_enqueue+0x178>
    }
    else return 0;          //The queue is filled, cannot insert more
  800aec:	0005883a 	mov	r2,zero

}
  800af0:	e037883a 	mov	sp,fp
  800af4:	dfc00117 	ldw	ra,4(sp)
  800af8:	df000017 	ldw	fp,0(sp)
  800afc:	dec00204 	addi	sp,sp,8
  800b00:	f800283a 	ret

00800b04 <queue_dequeue>:

alt_32 queue_dequeue(QUEUE *q)
{
  800b04:	defffd04 	addi	sp,sp,-12
  800b08:	df000215 	stw	fp,8(sp)
  800b0c:	df000204 	addi	fp,sp,8
  800b10:	e13fff15 	stw	r4,-4(fp)
    alt_u32 num_items = q->numitems;
  800b14:	e0bfff17 	ldw	r2,-4(fp)
  800b18:	10803417 	ldw	r2,208(r2)
  800b1c:	e0bffe15 	stw	r2,-8(fp)

    if (! num_items == 0)// The queue contains items
  800b20:	e0bffe17 	ldw	r2,-8(fp)
  800b24:	10000c26 	beq	r2,zero,800b58 <queue_dequeue+0x54>
    {
        q->rindex--; //Decrement the end pointer because it points to a at the first empty position in the FIFO
  800b28:	e0bfff17 	ldw	r2,-4(fp)
  800b2c:	10803217 	ldw	r2,200(r2)
  800b30:	10ffffc4 	addi	r3,r2,-1
  800b34:	e0bfff17 	ldw	r2,-4(fp)
  800b38:	10c03215 	stw	r3,200(r2)
         q->numitems--;                 //Decrement the number of items in the queue
  800b3c:	e0bfff17 	ldw	r2,-4(fp)
  800b40:	10803417 	ldw	r2,208(r2)
  800b44:	10ffffc4 	addi	r3,r2,-1
  800b48:	e0bfff17 	ldw	r2,-4(fp)
  800b4c:	10c03415 	stw	r3,208(r2)
         return 1;                      //Return success because the dequeing succeeded/ the queue was not empty
  800b50:	00800044 	movi	r2,1
  800b54:	00000106 	br	800b5c <queue_dequeue+0x58>
    }
    else return 0;          //The queue is empty, nothing can be dequeued
  800b58:	0005883a 	mov	r2,zero


}
  800b5c:	e037883a 	mov	sp,fp
  800b60:	df000017 	ldw	fp,0(sp)
  800b64:	dec00104 	addi	sp,sp,4
  800b68:	f800283a 	ret

00800b6c <queue_print>:


void queue_print(const QUEUE *q)
{
  800b6c:	defffd04 	addi	sp,sp,-12
  800b70:	df000215 	stw	fp,8(sp)
  800b74:	df000204 	addi	fp,sp,8
  800b78:	e13fff15 	stw	r4,-4(fp)
    int i = 0;
  800b7c:	e03ffe15 	stw	zero,-8(fp)
    for (i = q->numitems-1; i>= 0; i--){  //print in FIFO order, oldest first
  800b80:	e0bfff17 	ldw	r2,-4(fp)
  800b84:	10803417 	ldw	r2,208(r2)
  800b88:	10bfffc4 	addi	r2,r2,-1
  800b8c:	e0bffe15 	stw	r2,-8(fp)
  800b90:	00000306 	br	800ba0 <queue_print+0x34>
  800b94:	e0bffe17 	ldw	r2,-8(fp)
  800b98:	10bfffc4 	addi	r2,r2,-1
  800b9c:	e0bffe15 	stw	r2,-8(fp)
  800ba0:	e0bffe17 	ldw	r2,-8(fp)
  800ba4:	103ffb0e 	bge	r2,zero,800b94 <__alt_data_end+0xff800b94>
#ifdef DEBUG
        alt_printf("%d\n", q->items[i] );
#endif
    }
}
  800ba8:	0001883a 	nop
  800bac:	e037883a 	mov	sp,fp
  800bb0:	df000017 	ldw	fp,0(sp)
  800bb4:	dec00104 	addi	sp,sp,4
  800bb8:	f800283a 	ret

00800bbc <queue_print_screen>:
void queue_print_screen( const QUEUE *q, const alt_u32 x_origo, const  alt_u32 y_origo, alt_32 normalization, alt_32 offset, const alt_u32 rgb, SENSOR_OBJECT* sensor_obj_ptr){
  800bbc:	defff004 	addi	sp,sp,-64
  800bc0:	dfc00f15 	stw	ra,60(sp)
  800bc4:	df000e15 	stw	fp,56(sp)
  800bc8:	df000e04 	addi	fp,sp,56
  800bcc:	e13ffc15 	stw	r4,-16(fp)
  800bd0:	e17ffd15 	stw	r5,-12(fp)
  800bd4:	e1bffe15 	stw	r6,-8(fp)
  800bd8:	e1ffff15 	stw	r7,-4(fp)
	 int i = 0;
  800bdc:	e03ff315 	stw	zero,-52(fp)
	 int j;
	 alt_32 mean = 0;
  800be0:	e03ff715 	stw	zero,-36(fp)
	 alt_32 sum = 0;
  800be4:	e03ff415 	stw	zero,-48(fp)
	 alt_32 value;



	 // For all measusrement values...
	    for (i = q->numitems-1; i>= 0; i--){  //print in FIFO order, oldest first
  800be8:	e0bffc17 	ldw	r2,-16(fp)
  800bec:	10803417 	ldw	r2,208(r2)
  800bf0:	10bfffc4 	addi	r2,r2,-1
  800bf4:	e0bff315 	stw	r2,-52(fp)
  800bf8:	00004d06 	br	800d30 <queue_print_screen+0x174>

#ifdef DEBUG
	        alt_printf("Un-normalized %d\n normalized %d\n", q->items[i],q->items[i]/normalization );
#endif
	        j = q->numitems-1 -i;
  800bfc:	e0bffc17 	ldw	r2,-16(fp)
  800c00:	10c03417 	ldw	r3,208(r2)
  800c04:	e0bff317 	ldw	r2,-52(fp)
  800c08:	1885c83a 	sub	r2,r3,r2
  800c0c:	10bfffc4 	addi	r2,r2,-1
  800c10:	e0bff815 	stw	r2,-32(fp)
	        sum = sum + q->items[i]; // calculate the sum of all measurements
  800c14:	e0fffc17 	ldw	r3,-16(fp)
  800c18:	e0bff317 	ldw	r2,-52(fp)
  800c1c:	1085883a 	add	r2,r2,r2
  800c20:	1085883a 	add	r2,r2,r2
  800c24:	1885883a 	add	r2,r3,r2
  800c28:	10800017 	ldw	r2,0(r2)
  800c2c:	e0fff417 	ldw	r3,-48(fp)
  800c30:	1885883a 	add	r2,r3,r2
  800c34:	e0bff415 	stw	r2,-48(fp)
#ifdef DEBUG
	        alt_printf("j%d\n",j);
#endif

	        for(int k = 1; k < 55;k++)
  800c38:	00800044 	movi	r2,1
  800c3c:	e0bff615 	stw	r2,-40(fp)
  800c40:	00000c06 	br	800c74 <queue_print_screen+0xb8>
	        	print_pix(x_origo + j, y_origo-k,0);//Blank out previous measurement
  800c44:	e0fff817 	ldw	r3,-32(fp)
  800c48:	e0bffd17 	ldw	r2,-12(fp)
  800c4c:	1889883a 	add	r4,r3,r2
  800c50:	e0bff617 	ldw	r2,-40(fp)
  800c54:	e0fffe17 	ldw	r3,-8(fp)
  800c58:	1885c83a 	sub	r2,r3,r2
  800c5c:	000d883a 	mov	r6,zero
  800c60:	100b883a 	mov	r5,r2
  800c64:	0801a2c0 	call	801a2c <print_pix>
	        sum = sum + q->items[i]; // calculate the sum of all measurements
#ifdef DEBUG
	        alt_printf("j%d\n",j);
#endif

	        for(int k = 1; k < 55;k++)
  800c68:	e0bff617 	ldw	r2,-40(fp)
  800c6c:	10800044 	addi	r2,r2,1
  800c70:	e0bff615 	stw	r2,-40(fp)
  800c74:	e0bff617 	ldw	r2,-40(fp)
  800c78:	10800dd0 	cmplti	r2,r2,55
  800c7c:	103ff11e 	bne	r2,zero,800c44 <__alt_data_end+0xff800c44>
	        	print_pix(x_origo + j, y_origo-k,0);//Blank out previous measurement

	        print_pix(x_origo + j, y_origo,7);//Fix coordinate system line from previous blanking
  800c80:	e0fff817 	ldw	r3,-32(fp)
  800c84:	e0bffd17 	ldw	r2,-12(fp)
  800c88:	1885883a 	add	r2,r3,r2
  800c8c:	018001c4 	movi	r6,7
  800c90:	e17ffe17 	ldw	r5,-8(fp)
  800c94:	1009883a 	mov	r4,r2
  800c98:	0801a2c0 	call	801a2c <print_pix>
	        sensor_obj_ptr->draw_graph_axes(sensor_obj_ptr); // Redraw of graph axes just for sure. Don't need to
  800c9c:	e0800417 	ldw	r2,16(fp)
  800ca0:	10804517 	ldw	r2,276(r2)
  800ca4:	e1000417 	ldw	r4,16(fp)
  800ca8:	103ee83a 	callr	r2

	        value = offset + (alt_32)(q->items[i]/normalization); //Add offset and normalize each measurement value
  800cac:	e0fffc17 	ldw	r3,-16(fp)
  800cb0:	e0bff317 	ldw	r2,-52(fp)
  800cb4:	1085883a 	add	r2,r2,r2
  800cb8:	1085883a 	add	r2,r2,r2
  800cbc:	1885883a 	add	r2,r3,r2
  800cc0:	10800017 	ldw	r2,0(r2)
  800cc4:	e17fff17 	ldw	r5,-4(fp)
  800cc8:	1009883a 	mov	r4,r2
  800ccc:	08023000 	call	802300 <__divsi3>
  800cd0:	1007883a 	mov	r3,r2
  800cd4:	e0800217 	ldw	r2,8(fp)
  800cd8:	1885883a 	add	r2,r3,r2
  800cdc:	e0bff515 	stw	r2,-44(fp)

	        if(value > 40) //Roof each value
  800ce0:	e0bff517 	ldw	r2,-44(fp)
  800ce4:	10800a50 	cmplti	r2,r2,41
  800ce8:	1000021e 	bne	r2,zero,800cf4 <queue_print_screen+0x138>
	        	value = 40;
  800cec:	00800a04 	movi	r2,40
  800cf0:	e0bff515 	stw	r2,-44(fp)
	        if (value < 0)//Floor each value
  800cf4:	e0bff517 	ldw	r2,-44(fp)
  800cf8:	1000010e 	bge	r2,zero,800d00 <queue_print_screen+0x144>
	          value = 0;
  800cfc:	e03ff515 	stw	zero,-44(fp)

	        print_pix(x_origo + j,y_origo-value,rgb);  //Print the value on screen as a dot
  800d00:	e0fff817 	ldw	r3,-32(fp)
  800d04:	e0bffd17 	ldw	r2,-12(fp)
  800d08:	1889883a 	add	r4,r3,r2
  800d0c:	e0bff517 	ldw	r2,-44(fp)
  800d10:	e0fffe17 	ldw	r3,-8(fp)
  800d14:	1885c83a 	sub	r2,r3,r2
  800d18:	e1800317 	ldw	r6,12(fp)
  800d1c:	100b883a 	mov	r5,r2
  800d20:	0801a2c0 	call	801a2c <print_pix>
	 alt_32 value;



	 // For all measusrement values...
	    for (i = q->numitems-1; i>= 0; i--){  //print in FIFO order, oldest first
  800d24:	e0bff317 	ldw	r2,-52(fp)
  800d28:	10bfffc4 	addi	r2,r2,-1
  800d2c:	e0bff315 	stw	r2,-52(fp)
  800d30:	e0bff317 	ldw	r2,-52(fp)
  800d34:	103fb10e 	bge	r2,zero,800bfc <__alt_data_end+0xff800bfc>
	          value = 0;

	        print_pix(x_origo + j,y_origo-value,rgb);  //Print the value on screen as a dot

	    }
	    mean = sum/q->numitems;// calculate the mean
  800d38:	e0fff417 	ldw	r3,-48(fp)
  800d3c:	e0bffc17 	ldw	r2,-16(fp)
  800d40:	10803417 	ldw	r2,208(r2)
  800d44:	100b883a 	mov	r5,r2
  800d48:	1809883a 	mov	r4,r3
  800d4c:	08023f80 	call	8023f8 <__udivsi3>
  800d50:	e0bff715 	stw	r2,-36(fp)
	    alt_32 offs = 25 - (alt_32)(mean/normalization);  //Calculate offset so that graph stays in the middle
  800d54:	e17fff17 	ldw	r5,-4(fp)
  800d58:	e13ff717 	ldw	r4,-36(fp)
  800d5c:	08023000 	call	802300 <__divsi3>
  800d60:	1007883a 	mov	r3,r2
  800d64:	00800644 	movi	r2,25
  800d68:	10c5c83a 	sub	r2,r2,r3
  800d6c:	e0bff915 	stw	r2,-28(fp)
	    sensor_obj_ptr->offset = offs;    //update offset member variable
  800d70:	e0fff917 	ldw	r3,-28(fp)
  800d74:	e0800417 	ldw	r2,16(fp)
  800d78:	10c00915 	stw	r3,36(r2)

	    //Print the last value as a number on screen so that ones sees the instantaneous measurement
	    	        alt_32  bcd = i2bcd(abs(q->items[0]));
  800d7c:	e0bffc17 	ldw	r2,-16(fp)
  800d80:	10800017 	ldw	r2,0(r2)
  800d84:	1000010e 	bge	r2,zero,800d8c <queue_print_screen+0x1d0>
  800d88:	0085c83a 	sub	r2,zero,r2
  800d8c:	1009883a 	mov	r4,r2
  800d90:	08013a40 	call	8013a4 <i2bcd>
  800d94:	e0bffa15 	stw	r2,-24(fp)
	    	        if(q->items[0] & 0x80000000)//negative
  800d98:	e0bffc17 	ldw	r2,-16(fp)
  800d9c:	10800017 	ldw	r2,0(r2)
  800da0:	10000b0e 	bge	r2,zero,800dd0 <queue_print_screen+0x214>
	    	        	print_char(x_origo +24, y_origo+30,4,0,'-');
  800da4:	e0bffd17 	ldw	r2,-12(fp)
  800da8:	10c00604 	addi	r3,r2,24
  800dac:	e0bffe17 	ldw	r2,-8(fp)
  800db0:	11000784 	addi	r4,r2,30
  800db4:	00800b44 	movi	r2,45
  800db8:	d8800015 	stw	r2,0(sp)
  800dbc:	000f883a 	mov	r7,zero
  800dc0:	01800104 	movi	r6,4
  800dc4:	200b883a 	mov	r5,r4
  800dc8:	1809883a 	mov	r4,r3
  800dcc:	0801c780 	call	801c78 <print_char>

	    	        	char c = (char)((bcd & 0xF000) >>12);
  800dd0:	e0bffa17 	ldw	r2,-24(fp)
  800dd4:	10bc000c 	andi	r2,r2,61440
  800dd8:	1005d33a 	srai	r2,r2,12
  800ddc:	e0bffb05 	stb	r2,-20(fp)
	    	        	short s = (short) c +48;
  800de0:	e0bffb07 	ldb	r2,-20(fp)
  800de4:	10800c04 	addi	r2,r2,48
  800de8:	e0bffb8d 	sth	r2,-18(fp)
	    	        	print_char(x_origo +30, y_origo+30,4,0,(char)s);
  800dec:	e0bffd17 	ldw	r2,-12(fp)
  800df0:	10c00784 	addi	r3,r2,30
  800df4:	e0bffe17 	ldw	r2,-8(fp)
  800df8:	11000784 	addi	r4,r2,30
  800dfc:	e0bffb8b 	ldhu	r2,-18(fp)
  800e00:	10803fcc 	andi	r2,r2,255
  800e04:	1080201c 	xori	r2,r2,128
  800e08:	10bfe004 	addi	r2,r2,-128
  800e0c:	d8800015 	stw	r2,0(sp)
  800e10:	000f883a 	mov	r7,zero
  800e14:	01800104 	movi	r6,4
  800e18:	200b883a 	mov	r5,r4
  800e1c:	1809883a 	mov	r4,r3
  800e20:	0801c780 	call	801c78 <print_char>

	    	        	c = (char)((bcd & 0x0F00) >>8);
  800e24:	e0bffa17 	ldw	r2,-24(fp)
  800e28:	1083c00c 	andi	r2,r2,3840
  800e2c:	1005d23a 	srai	r2,r2,8
  800e30:	e0bffb05 	stb	r2,-20(fp)
	    	        	s = (short) c +48;
  800e34:	e0bffb07 	ldb	r2,-20(fp)
  800e38:	10800c04 	addi	r2,r2,48
  800e3c:	e0bffb8d 	sth	r2,-18(fp)
	    	        	print_char(x_origo +38, y_origo+30,4,0,(char)s);
  800e40:	e0bffd17 	ldw	r2,-12(fp)
  800e44:	10c00984 	addi	r3,r2,38
  800e48:	e0bffe17 	ldw	r2,-8(fp)
  800e4c:	11000784 	addi	r4,r2,30
  800e50:	e0bffb8b 	ldhu	r2,-18(fp)
  800e54:	10803fcc 	andi	r2,r2,255
  800e58:	1080201c 	xori	r2,r2,128
  800e5c:	10bfe004 	addi	r2,r2,-128
  800e60:	d8800015 	stw	r2,0(sp)
  800e64:	000f883a 	mov	r7,zero
  800e68:	01800104 	movi	r6,4
  800e6c:	200b883a 	mov	r5,r4
  800e70:	1809883a 	mov	r4,r3
  800e74:	0801c780 	call	801c78 <print_char>

	    	        	c = (char)((bcd & 0x0F0) >>4);
  800e78:	e0bffa17 	ldw	r2,-24(fp)
  800e7c:	10803c0c 	andi	r2,r2,240
  800e80:	1005d13a 	srai	r2,r2,4
  800e84:	e0bffb05 	stb	r2,-20(fp)
	    	        	s = (short) c +48;
  800e88:	e0bffb07 	ldb	r2,-20(fp)
  800e8c:	10800c04 	addi	r2,r2,48
  800e90:	e0bffb8d 	sth	r2,-18(fp)
	    	        	print_char(x_origo +46, y_origo+30,4,0,(char)s);
  800e94:	e0bffd17 	ldw	r2,-12(fp)
  800e98:	10c00b84 	addi	r3,r2,46
  800e9c:	e0bffe17 	ldw	r2,-8(fp)
  800ea0:	11000784 	addi	r4,r2,30
  800ea4:	e0bffb8b 	ldhu	r2,-18(fp)
  800ea8:	10803fcc 	andi	r2,r2,255
  800eac:	1080201c 	xori	r2,r2,128
  800eb0:	10bfe004 	addi	r2,r2,-128
  800eb4:	d8800015 	stw	r2,0(sp)
  800eb8:	000f883a 	mov	r7,zero
  800ebc:	01800104 	movi	r6,4
  800ec0:	200b883a 	mov	r5,r4
  800ec4:	1809883a 	mov	r4,r3
  800ec8:	0801c780 	call	801c78 <print_char>

	    	        	c = (char)(bcd & 0x0F);
  800ecc:	e0bffa17 	ldw	r2,-24(fp)
  800ed0:	108003cc 	andi	r2,r2,15
  800ed4:	e0bffb05 	stb	r2,-20(fp)
	    	        	s = (short) c +48;
  800ed8:	e0bffb07 	ldb	r2,-20(fp)
  800edc:	10800c04 	addi	r2,r2,48
  800ee0:	e0bffb8d 	sth	r2,-18(fp)
	    	        	print_char(x_origo +54, y_origo+30,4,0,(char)s);
  800ee4:	e0bffd17 	ldw	r2,-12(fp)
  800ee8:	10c00d84 	addi	r3,r2,54
  800eec:	e0bffe17 	ldw	r2,-8(fp)
  800ef0:	11000784 	addi	r4,r2,30
  800ef4:	e0bffb8b 	ldhu	r2,-18(fp)
  800ef8:	10803fcc 	andi	r2,r2,255
  800efc:	1080201c 	xori	r2,r2,128
  800f00:	10bfe004 	addi	r2,r2,-128
  800f04:	d8800015 	stw	r2,0(sp)
  800f08:	000f883a 	mov	r7,zero
  800f0c:	01800104 	movi	r6,4
  800f10:	200b883a 	mov	r5,r4
  800f14:	1809883a 	mov	r4,r3
  800f18:	0801c780 	call	801c78 <print_char>
}
  800f1c:	0001883a 	nop
  800f20:	e037883a 	mov	sp,fp
  800f24:	dfc00117 	ldw	ra,4(sp)
  800f28:	df000017 	ldw	fp,0(sp)
  800f2c:	dec00204 	addi	sp,sp,8
  800f30:	f800283a 	ret

00800f34 <read_temp>:



void read_temp(QUEUE *q){
  800f34:	defffc04 	addi	sp,sp,-16
  800f38:	dfc00315 	stw	ra,12(sp)
  800f3c:	df000215 	stw	fp,8(sp)
  800f40:	df000204 	addi	fp,sp,8
  800f44:	e13fff15 	stw	r4,-4(fp)
	ADC_INIT;
  800f48:	00c00044 	movi	r3,1
  800f4c:	00804234 	movhi	r2,264
  800f50:	10849c04 	addi	r2,r2,4720
  800f54:	10c00035 	stwio	r3,0(r2)
		alt_u32 temp = ADC_READ_TEMP;
  800f58:	00804234 	movhi	r2,264
  800f5c:	10840104 	addi	r2,r2,4100
  800f60:	10800037 	ldwio	r2,0(r2)
  800f64:	e0bffe15 	stw	r2,-8(fp)
		if(queue_enqueue(q,temp))// If I can enqueue the measurement
  800f68:	e0bffe17 	ldw	r2,-8(fp)
  800f6c:	100b883a 	mov	r5,r2
  800f70:	e13fff17 	ldw	r4,-4(fp)
  800f74:	08009780 	call	800978 <queue_enqueue>
  800f78:	10000226 	beq	r2,zero,800f84 <read_temp+0x50>
			do_nothing();	//then do nothing
  800f7c:	08013840 	call	801384 <do_nothing>
						}
		//alt_printf("nu");
#ifdef DEBUG
		 queue_print(q);
#endif
}
  800f80:	00000606 	br	800f9c <read_temp+0x68>
	ADC_INIT;
		alt_u32 temp = ADC_READ_TEMP;
		if(queue_enqueue(q,temp))// If I can enqueue the measurement
			do_nothing();	//then do nothing
						else{
							queue_dequeue(q);// else throw the oldest measurement point
  800f84:	e13fff17 	ldw	r4,-4(fp)
  800f88:	0800b040 	call	800b04 <queue_dequeue>
							queue_enqueue(q,temp);//and then enqueue the newest
  800f8c:	e0bffe17 	ldw	r2,-8(fp)
  800f90:	100b883a 	mov	r5,r2
  800f94:	e13fff17 	ldw	r4,-4(fp)
  800f98:	08009780 	call	800978 <queue_enqueue>
						}
		//alt_printf("nu");
#ifdef DEBUG
		 queue_print(q);
#endif
}
  800f9c:	0001883a 	nop
  800fa0:	e037883a 	mov	sp,fp
  800fa4:	dfc00117 	ldw	ra,4(sp)
  800fa8:	df000017 	ldw	fp,0(sp)
  800fac:	dec00204 	addi	sp,sp,8
  800fb0:	f800283a 	ret

00800fb4 <read_light>:
void read_light(QUEUE *q){
  800fb4:	defffc04 	addi	sp,sp,-16
  800fb8:	dfc00315 	stw	ra,12(sp)
  800fbc:	df000215 	stw	fp,8(sp)
  800fc0:	df000204 	addi	fp,sp,8
  800fc4:	e13fff15 	stw	r4,-4(fp)
	ADC_INIT;
  800fc8:	00c00044 	movi	r3,1
  800fcc:	00804234 	movhi	r2,264
  800fd0:	10849c04 	addi	r2,r2,4720
  800fd4:	10c00035 	stwio	r3,0(r2)
			alt_u32 light = ADC_READ_PHOTO;
  800fd8:	00804234 	movhi	r2,264
  800fdc:	10840004 	addi	r2,r2,4096
  800fe0:	10800037 	ldwio	r2,0(r2)
  800fe4:	e0bffe15 	stw	r2,-8(fp)
			if(queue_enqueue(q,light)) //If I can queue...
  800fe8:	e0bffe17 	ldw	r2,-8(fp)
  800fec:	100b883a 	mov	r5,r2
  800ff0:	e13fff17 	ldw	r4,-4(fp)
  800ff4:	08009780 	call	800978 <queue_enqueue>
  800ff8:	10000226 	beq	r2,zero,801004 <read_light+0x50>
				do_nothing();		//then Do nothing
  800ffc:	08013840 	call	801384 <do_nothing>
			//alt_printf("printar nu");
								}
#ifdef DEBUG
		 queue_print(q);
#endif
}
  801000:	00000606 	br	80101c <read_light+0x68>
	ADC_INIT;
			alt_u32 light = ADC_READ_PHOTO;
			if(queue_enqueue(q,light)) //If I can queue...
				do_nothing();		//then Do nothing
							else{
								queue_dequeue(q); //else dequeue
  801004:	e13fff17 	ldw	r4,-4(fp)
  801008:	0800b040 	call	800b04 <queue_dequeue>
								queue_enqueue(q,light); //and then enqueue
  80100c:	e0bffe17 	ldw	r2,-8(fp)
  801010:	100b883a 	mov	r5,r2
  801014:	e13fff17 	ldw	r4,-4(fp)
  801018:	08009780 	call	800978 <queue_enqueue>
			//alt_printf("printar nu");
								}
#ifdef DEBUG
		 queue_print(q);
#endif
}
  80101c:	0001883a 	nop
  801020:	e037883a 	mov	sp,fp
  801024:	dfc00117 	ldw	ra,4(sp)
  801028:	df000017 	ldw	fp,0(sp)
  80102c:	dec00204 	addi	sp,sp,8
  801030:	f800283a 	ret

00801034 <config_time_base>:
/************************************************/
void config_time_base(alt_u32 time_base, SENSOR_OBJECT* sensor_obj_ptr){
  801034:	defffd04 	addi	sp,sp,-12
  801038:	df000215 	stw	fp,8(sp)
  80103c:	df000204 	addi	fp,sp,8
  801040:	e13ffe15 	stw	r4,-8(fp)
  801044:	e17fff15 	stw	r5,-4(fp)
	 sensor_obj_ptr->time_base = time_base;
  801048:	e0bfff17 	ldw	r2,-4(fp)
  80104c:	e0fffe17 	ldw	r3,-8(fp)
  801050:	10c00715 	stw	r3,28(r2)
}
  801054:	0001883a 	nop
  801058:	e037883a 	mov	sp,fp
  80105c:	df000017 	ldw	fp,0(sp)
  801060:	dec00104 	addi	sp,sp,4
  801064:	f800283a 	ret

00801068 <init_measurement>:
void init_measurement(SENSOR_OBJECT* sensor_obj_ptr){
  801068:	defffd04 	addi	sp,sp,-12
  80106c:	dfc00215 	stw	ra,8(sp)
  801070:	df000115 	stw	fp,4(sp)
  801074:	df000104 	addi	fp,sp,4
  801078:	e13fff15 	stw	r4,-4(fp)
	queue_init(sensor_obj_ptr->q); //Zeroing the queue
  80107c:	e0bfff17 	ldw	r2,-4(fp)
  801080:	10804017 	ldw	r2,256(r2)
  801084:	1009883a 	mov	r4,r2
  801088:	08008ec0 	call	8008ec <queue_init>
	sensor_obj_ptr->draw_graph_axes(sensor_obj_ptr); //Draw graph axes
  80108c:	e0bfff17 	ldw	r2,-4(fp)
  801090:	10804517 	ldw	r2,276(r2)
  801094:	e13fff17 	ldw	r4,-4(fp)
  801098:	103ee83a 	callr	r2
}
  80109c:	0001883a 	nop
  8010a0:	e037883a 	mov	sp,fp
  8010a4:	dfc00117 	ldw	ra,4(sp)
  8010a8:	df000017 	ldw	fp,0(sp)
  8010ac:	dec00204 	addi	sp,sp,8
  8010b0:	f800283a 	ret

008010b4 <draw_graph>:

void draw_graph(const SENSOR_OBJECT* sensor_obj_ptr){
  8010b4:	defffc04 	addi	sp,sp,-16
  8010b8:	dfc00315 	stw	ra,12(sp)
  8010bc:	df000215 	stw	fp,8(sp)
  8010c0:	df000204 	addi	fp,sp,8
  8010c4:	e13fff15 	stw	r4,-4(fp)
	//Draws the graph axes and prints the sensor description
	print_char(sensor_obj_ptr->x_origo +55,sensor_obj_ptr->y_origo -3,7,0,'>');
  8010c8:	e0bfff17 	ldw	r2,-4(fp)
  8010cc:	10800517 	ldw	r2,20(r2)
  8010d0:	10c00dc4 	addi	r3,r2,55
  8010d4:	e0bfff17 	ldw	r2,-4(fp)
  8010d8:	10800617 	ldw	r2,24(r2)
  8010dc:	113fff44 	addi	r4,r2,-3
  8010e0:	00800f84 	movi	r2,62
  8010e4:	d8800015 	stw	r2,0(sp)
  8010e8:	000f883a 	mov	r7,zero
  8010ec:	018001c4 	movi	r6,7
  8010f0:	200b883a 	mov	r5,r4
  8010f4:	1809883a 	mov	r4,r3
  8010f8:	0801c780 	call	801c78 <print_char>
		print_hline(sensor_obj_ptr->x_origo,sensor_obj_ptr->y_origo,60,7);
  8010fc:	e0bfff17 	ldw	r2,-4(fp)
  801100:	10c00517 	ldw	r3,20(r2)
  801104:	e0bfff17 	ldw	r2,-4(fp)
  801108:	10800617 	ldw	r2,24(r2)
  80110c:	01c001c4 	movi	r7,7
  801110:	01800f04 	movi	r6,60
  801114:	100b883a 	mov	r5,r2
  801118:	1809883a 	mov	r4,r3
  80111c:	0801ad80 	call	801ad8 <print_hline>

		print_char(sensor_obj_ptr->x_origo -4,sensor_obj_ptr->y_origo -45,7,0,'^');
  801120:	e0bfff17 	ldw	r2,-4(fp)
  801124:	10800517 	ldw	r2,20(r2)
  801128:	10ffff04 	addi	r3,r2,-4
  80112c:	e0bfff17 	ldw	r2,-4(fp)
  801130:	10800617 	ldw	r2,24(r2)
  801134:	113ff4c4 	addi	r4,r2,-45
  801138:	00801784 	movi	r2,94
  80113c:	d8800015 	stw	r2,0(sp)
  801140:	000f883a 	mov	r7,zero
  801144:	018001c4 	movi	r6,7
  801148:	200b883a 	mov	r5,r4
  80114c:	1809883a 	mov	r4,r3
  801150:	0801c780 	call	801c78 <print_char>
		print_vline(sensor_obj_ptr->x_origo-1,sensor_obj_ptr->y_origo -45,45,7);
  801154:	e0bfff17 	ldw	r2,-4(fp)
  801158:	10800517 	ldw	r2,20(r2)
  80115c:	10ffffc4 	addi	r3,r2,-1
  801160:	e0bfff17 	ldw	r2,-4(fp)
  801164:	10800617 	ldw	r2,24(r2)
  801168:	10bff4c4 	addi	r2,r2,-45
  80116c:	01c001c4 	movi	r7,7
  801170:	01800b44 	movi	r6,45
  801174:	100b883a 	mov	r5,r2
  801178:	1809883a 	mov	r4,r3
  80117c:	0801ba80 	call	801ba8 <print_vline>

		print_str(sensor_obj_ptr->x_origo -20, sensor_obj_ptr->y_origo +10,7,sensor_obj_ptr->description);
  801180:	e0bfff17 	ldw	r2,-4(fp)
  801184:	10800517 	ldw	r2,20(r2)
  801188:	10fffb04 	addi	r3,r2,-20
  80118c:	e0bfff17 	ldw	r2,-4(fp)
  801190:	10800617 	ldw	r2,24(r2)
  801194:	10800284 	addi	r2,r2,10
  801198:	e13fff17 	ldw	r4,-4(fp)
  80119c:	200f883a 	mov	r7,r4
  8011a0:	018001c4 	movi	r6,7
  8011a4:	100b883a 	mov	r5,r2
  8011a8:	1809883a 	mov	r4,r3
  8011ac:	0801da80 	call	801da8 <print_str>
}
  8011b0:	0001883a 	nop
  8011b4:	e037883a 	mov	sp,fp
  8011b8:	dfc00117 	ldw	ra,4(sp)
  8011bc:	df000017 	ldw	fp,0(sp)
  8011c0:	dec00204 	addi	sp,sp,8
  8011c4:	f800283a 	ret

008011c8 <update_graph>:

void update_graph( SENSOR_OBJECT* sensor_obj_ptr){
  8011c8:	defff704 	addi	sp,sp,-36
  8011cc:	dfc00815 	stw	ra,32(sp)
  8011d0:	df000715 	stw	fp,28(sp)
  8011d4:	dc800615 	stw	r18,24(sp)
  8011d8:	dc400515 	stw	r17,20(sp)
  8011dc:	dc000415 	stw	r16,16(sp)
  8011e0:	df000704 	addi	fp,sp,28
  8011e4:	e13ffc15 	stw	r4,-16(fp)
#ifdef DEBUG
	queue_print(sensor_obj->q);
#endif
	queue_print_screen(sensor_obj_ptr->q,
  8011e8:	e0bffc17 	ldw	r2,-16(fp)
  8011ec:	14004017 	ldw	r16,256(r2)
  8011f0:	e0bffc17 	ldw	r2,-16(fp)
  8011f4:	14400517 	ldw	r17,20(r2)
  8011f8:	e0bffc17 	ldw	r2,-16(fp)
  8011fc:	14800617 	ldw	r18,24(r2)
			sensor_obj_ptr->x_origo,
			sensor_obj_ptr->y_origo,
			sensor_obj_ptr->normalization_factor,
  801200:	e0bffc17 	ldw	r2,-16(fp)
  801204:	10c00817 	ldw	r3,32(r2)

void update_graph( SENSOR_OBJECT* sensor_obj_ptr){
#ifdef DEBUG
	queue_print(sensor_obj->q);
#endif
	queue_print_screen(sensor_obj_ptr->q,
  801208:	1809883a 	mov	r4,r3
  80120c:	08024dc0 	call	8024dc <__fixsfsi>
  801210:	100b883a 	mov	r5,r2
			sensor_obj_ptr->x_origo,
			sensor_obj_ptr->y_origo,
			sensor_obj_ptr->normalization_factor,
			sensor_obj_ptr->offset,
  801214:	e0bffc17 	ldw	r2,-16(fp)
  801218:	10800917 	ldw	r2,36(r2)

void update_graph( SENSOR_OBJECT* sensor_obj_ptr){
#ifdef DEBUG
	queue_print(sensor_obj->q);
#endif
	queue_print_screen(sensor_obj_ptr->q,
  80121c:	1009883a 	mov	r4,r2
  801220:	e0bffc17 	ldw	r2,-16(fp)
  801224:	10800a17 	ldw	r2,40(r2)
  801228:	e0fffc17 	ldw	r3,-16(fp)
  80122c:	d8c00215 	stw	r3,8(sp)
  801230:	d8800115 	stw	r2,4(sp)
  801234:	d9000015 	stw	r4,0(sp)
  801238:	280f883a 	mov	r7,r5
  80123c:	900d883a 	mov	r6,r18
  801240:	880b883a 	mov	r5,r17
  801244:	8009883a 	mov	r4,r16
  801248:	0800bbc0 	call	800bbc <queue_print_screen>
			sensor_obj_ptr->x_origo,
			sensor_obj_ptr->y_origo,
			sensor_obj_ptr->normalization_factor,
			sensor_obj_ptr->offset,
			sensor_obj_ptr->rgb,sensor_obj_ptr );
}
  80124c:	0001883a 	nop
  801250:	e6fffd04 	addi	sp,fp,-12
  801254:	dfc00417 	ldw	ra,16(sp)
  801258:	df000317 	ldw	fp,12(sp)
  80125c:	dc800217 	ldw	r18,8(sp)
  801260:	dc400117 	ldw	r17,4(sp)
  801264:	dc000017 	ldw	r16,0(sp)
  801268:	dec00504 	addi	sp,sp,20
  80126c:	f800283a 	ret

00801270 <read_accelerometerX>:
void read_accelerometerX(QUEUE *q)
{
  801270:	defff604 	addi	sp,sp,-40
  801274:	dfc00915 	stw	ra,36(sp)
  801278:	df000815 	stw	fp,32(sp)
  80127c:	df000804 	addi	fp,sp,32
  801280:	e13fff15 	stw	r4,-4(fp)
	ACCELEROMETER accel_data;
	alt_u8 spi_command_tx[2] = {0x0B, 0x00}; //, 0x00, 0x00}; // read one register from address 0x00
  801284:	008002c4 	movi	r2,11
  801288:	e0bffcc5 	stb	r2,-13(fp)
  80128c:	e03ffd05 	stb	zero,-12(fp)
	alt_u8 spi_command_rx[4] = {0xB,0,0,0};
  801290:	008002c4 	movi	r2,11
  801294:	e0bffd45 	stb	r2,-11(fp)
  801298:	e03ffd85 	stb	zero,-10(fp)
  80129c:	e03ffdc5 	stb	zero,-9(fp)
  8012a0:	e03ffe05 	stb	zero,-8(fp)
	// ------------------------------------------ Init SPI
		spi_command_tx[0] = WRITE_COMMAND; // write command
  8012a4:	00800284 	movi	r2,10
  8012a8:	e0bffcc5 	stb	r2,-13(fp)
		spi_command_tx[1] = 0x2D; // Address 0x2D (go bit location)
  8012ac:	00800b44 	movi	r2,45
  8012b0:	e0bffd05 	stb	r2,-12(fp)
		spi_command_tx[2] = 0x02; // go bit value
  8012b4:	00800084 	movi	r2,2
  8012b8:	e0bffd45 	stb	r2,-11(fp)

		alt_avalon_spi_command( ACCELEROMETER_SPI_BASE, 0,
  8012bc:	e0fffcc4 	addi	r3,fp,-13
  8012c0:	d8000215 	stw	zero,8(sp)
  8012c4:	e0bffd44 	addi	r2,fp,-11
  8012c8:	d8800115 	stw	r2,4(sp)
  8012cc:	d8000015 	stw	zero,0(sp)
  8012d0:	180f883a 	mov	r7,r3
  8012d4:	018000c4 	movi	r6,3
  8012d8:	000b883a 	mov	r5,zero
  8012dc:	01004234 	movhi	r4,264
  8012e0:	21048004 	addi	r4,r4,4608
  8012e4:	0802a040 	call	802a04 <alt_avalon_spi_command>
							  3, spi_command_tx,
							  0, spi_command_rx,
							  0);
	// ------------------------------------------ Read SPI
		spi_command_tx[0] = READ_COMMAND; // read command
  8012e8:	008002c4 	movi	r2,11
  8012ec:	e0bffcc5 	stb	r2,-13(fp)
		spi_command_tx[1] = 0x08; // Address of the data registers
  8012f0:	00800204 	movi	r2,8
  8012f4:	e0bffd05 	stb	r2,-12(fp)


			alt_avalon_spi_command( ACCELEROMETER_SPI_BASE, 0,
  8012f8:	e0fffcc4 	addi	r3,fp,-13
  8012fc:	d8000215 	stw	zero,8(sp)
  801300:	e0bffc04 	addi	r2,fp,-16
  801304:	d8800115 	stw	r2,4(sp)
  801308:	008000c4 	movi	r2,3
  80130c:	d8800015 	stw	r2,0(sp)
  801310:	180f883a 	mov	r7,r3
  801314:	01800084 	movi	r6,2
  801318:	000b883a 	mov	r5,zero
  80131c:	01004234 	movhi	r4,264
  801320:	21048004 	addi	r4,r4,4608
  801324:	0802a040 	call	802a04 <alt_avalon_spi_command>
								  0);
#ifdef DEBUG
			alt_printf("X:%d\t Y:%d\t Z:%d\t\n",accel_data.x, accel_data.y, accel_data.z);
#endif

		alt_32 accel_x = 0;
  801328:	e03ffb15 	stw	zero,-20(fp)
		accel_x = (alt_32)accel_data.x;
  80132c:	e0bffc03 	ldbu	r2,-16(fp)
  801330:	10803fcc 	andi	r2,r2,255
  801334:	1080201c 	xori	r2,r2,128
  801338:	10bfe004 	addi	r2,r2,-128
  80133c:	e0bffb15 	stw	r2,-20(fp)

		if(queue_enqueue(q,accel_x))// If I can queue
  801340:	e17ffb17 	ldw	r5,-20(fp)
  801344:	e13fff17 	ldw	r4,-4(fp)
  801348:	08009780 	call	800978 <queue_enqueue>
  80134c:	10000226 	beq	r2,zero,801358 <read_accelerometerX+0xe8>
			do_nothing();									//then do nothing
  801350:	08013840 	call	801384 <do_nothing>
				else{
					queue_dequeue(q); //dequeue the oldest element
					queue_enqueue(q,accel_x);//and then enqueue
				}
}
  801354:	00000506 	br	80136c <read_accelerometerX+0xfc>
		accel_x = (alt_32)accel_data.x;

		if(queue_enqueue(q,accel_x))// If I can queue
			do_nothing();									//then do nothing
				else{
					queue_dequeue(q); //dequeue the oldest element
  801358:	e13fff17 	ldw	r4,-4(fp)
  80135c:	0800b040 	call	800b04 <queue_dequeue>
					queue_enqueue(q,accel_x);//and then enqueue
  801360:	e17ffb17 	ldw	r5,-20(fp)
  801364:	e13fff17 	ldw	r4,-4(fp)
  801368:	08009780 	call	800978 <queue_enqueue>
				}
}
  80136c:	0001883a 	nop
  801370:	e037883a 	mov	sp,fp
  801374:	dfc00117 	ldw	ra,4(sp)
  801378:	df000017 	ldw	fp,0(sp)
  80137c:	dec00204 	addi	sp,sp,8
  801380:	f800283a 	ret

00801384 <do_nothing>:
void do_nothing(void){
  801384:	deffff04 	addi	sp,sp,-4
  801388:	df000015 	stw	fp,0(sp)
  80138c:	d839883a 	mov	fp,sp

}
  801390:	0001883a 	nop
  801394:	e037883a 	mov	sp,fp
  801398:	df000017 	ldw	fp,0(sp)
  80139c:	dec00104 	addi	sp,sp,4
  8013a0:	f800283a 	ret

008013a4 <i2bcd>:
// *      Author: root
// */
#include <alt_types.h>
#include "vga_util.h"

unsigned int i2bcd(unsigned int i) {
  8013a4:	defffa04 	addi	sp,sp,-24
  8013a8:	dfc00515 	stw	ra,20(sp)
  8013ac:	df000415 	stw	fp,16(sp)
  8013b0:	df000404 	addi	fp,sp,16
  8013b4:	e13fff15 	stw	r4,-4(fp)
	//Integer to bcd
	//Found algoritm online on discussioforum. Didn't work, had to rework it with some trials.
    unsigned int binaryShift = 1;
  8013b8:	00800044 	movi	r2,1
  8013bc:	e0bffc15 	stw	r2,-16(fp)
    unsigned int digit;
    unsigned int bcd = 0;
  8013c0:	e03ffd15 	stw	zero,-12(fp)
    //alt_printf("%d\n",i);
    while (i > 0) {
  8013c4:	00001306 	br	801414 <i2bcd+0x70>
        digit = i % 10;
  8013c8:	e0bfff17 	ldw	r2,-4(fp)
  8013cc:	01400284 	movi	r5,10
  8013d0:	1009883a 	mov	r4,r2
  8013d4:	080245c0 	call	80245c <__umodsi3>
  8013d8:	e0bffe15 	stw	r2,-8(fp)
        bcd += (digit << binaryShift);
  8013dc:	e0fffe17 	ldw	r3,-8(fp)
  8013e0:	e0bffc17 	ldw	r2,-16(fp)
  8013e4:	1884983a 	sll	r2,r3,r2
  8013e8:	e0fffd17 	ldw	r3,-12(fp)
  8013ec:	1885883a 	add	r2,r3,r2
  8013f0:	e0bffd15 	stw	r2,-12(fp)
        binaryShift += 4;
  8013f4:	e0bffc17 	ldw	r2,-16(fp)
  8013f8:	10800104 	addi	r2,r2,4
  8013fc:	e0bffc15 	stw	r2,-16(fp)
        i /= 10;
  801400:	e0bfff17 	ldw	r2,-4(fp)
  801404:	01400284 	movi	r5,10
  801408:	1009883a 	mov	r4,r2
  80140c:	08023f80 	call	8023f8 <__udivsi3>
  801410:	e0bfff15 	stw	r2,-4(fp)
	//Found algoritm online on discussioforum. Didn't work, had to rework it with some trials.
    unsigned int binaryShift = 1;
    unsigned int digit;
    unsigned int bcd = 0;
    //alt_printf("%d\n",i);
    while (i > 0) {
  801414:	e0bfff17 	ldw	r2,-4(fp)
  801418:	103feb1e 	bne	r2,zero,8013c8 <__alt_data_end+0xff8013c8>
        digit = i % 10;
        bcd += (digit << binaryShift);
        binaryShift += 4;
        i /= 10;
    }
    bcd = bcd >> 1; //Added this
  80141c:	e0bffd17 	ldw	r2,-12(fp)
  801420:	1004d07a 	srli	r2,r2,1
  801424:	e0bffd15 	stw	r2,-12(fp)
            n++;
        }
    putchar('\n');
#endif

    return bcd;
  801428:	e0bffd17 	ldw	r2,-12(fp)
}
  80142c:	e037883a 	mov	sp,fp
  801430:	dfc00117 	ldw	ra,4(sp)
  801434:	df000017 	ldw	fp,0(sp)
  801438:	dec00204 	addi	sp,sp,8
  80143c:	f800283a 	ret

00801440 <update_time>:


void update_time(unsigned int i){
  801440:	defffa04 	addi	sp,sp,-24
  801444:	dfc00515 	stw	ra,20(sp)
  801448:	df000415 	stw	fp,16(sp)
  80144c:	df000404 	addi	fp,sp,16
  801450:	e13fff15 	stw	r4,-4(fp)

	static int hours = 0;
	static int minutes = 0;
	static int seconds = 0;
	//static int sub_seconds = 0;
	unsigned int bcd = 0;
  801454:	e03ffd15 	stw	zero,-12(fp)
	//unsigned int time[3]={hours, minutes,seconds};


		seconds++;
  801458:	d0a0d217 	ldw	r2,-31928(gp)
  80145c:	10800044 	addi	r2,r2,1
  801460:	d0a0d215 	stw	r2,-31928(gp)


	if(seconds == 60)
  801464:	d0a0d217 	ldw	r2,-31928(gp)
  801468:	10800f18 	cmpnei	r2,r2,60
  80146c:	10000b1e 	bne	r2,zero,80149c <update_time+0x5c>
	{
		seconds = 0;
  801470:	d020d215 	stw	zero,-31928(gp)
		minutes++;
  801474:	d0a0d317 	ldw	r2,-31924(gp)
  801478:	10800044 	addi	r2,r2,1
  80147c:	d0a0d315 	stw	r2,-31924(gp)
		if (minutes == 60)
  801480:	d0a0d317 	ldw	r2,-31924(gp)
  801484:	10800f18 	cmpnei	r2,r2,60
  801488:	1000041e 	bne	r2,zero,80149c <update_time+0x5c>
		{
			minutes = 0;
  80148c:	d020d315 	stw	zero,-31924(gp)
			hours++;
  801490:	d0a0d417 	ldw	r2,-31920(gp)
  801494:	10800044 	addi	r2,r2,1
  801498:	d0a0d415 	stw	r2,-31920(gp)
		}
	}

	char c;
	short s;
	bcd = i2bcd(hours);   							//Hours
  80149c:	d0a0d417 	ldw	r2,-31920(gp)
  8014a0:	1009883a 	mov	r4,r2
  8014a4:	08013a40 	call	8013a4 <i2bcd>
  8014a8:	e0bffd15 	stw	r2,-12(fp)
	c = (char)((bcd & 0x0F0) >>4);
  8014ac:	e0bffd17 	ldw	r2,-12(fp)
  8014b0:	10803c0c 	andi	r2,r2,240
  8014b4:	1004d13a 	srli	r2,r2,4
  8014b8:	e0bffe05 	stb	r2,-8(fp)
	s = (short) c +48;
  8014bc:	e0bffe07 	ldb	r2,-8(fp)
  8014c0:	10800c04 	addi	r2,r2,48
  8014c4:	e0bffe8d 	sth	r2,-6(fp)
	print_char(2*320/3-50 +30 +46, 130,4,0,(char)s);
  8014c8:	e0bffe8b 	ldhu	r2,-6(fp)
  8014cc:	10803fcc 	andi	r2,r2,255
  8014d0:	1080201c 	xori	r2,r2,128
  8014d4:	10bfe004 	addi	r2,r2,-128
  8014d8:	d8800015 	stw	r2,0(sp)
  8014dc:	000f883a 	mov	r7,zero
  8014e0:	01800104 	movi	r6,4
  8014e4:	01402084 	movi	r5,130
  8014e8:	01003bc4 	movi	r4,239
  8014ec:	0801c780 	call	801c78 <print_char>

	c = (char)(bcd & 0x0F);
  8014f0:	e0bffd17 	ldw	r2,-12(fp)
  8014f4:	108003cc 	andi	r2,r2,15
  8014f8:	e0bffe05 	stb	r2,-8(fp)
	s = (short) c +48;
  8014fc:	e0bffe07 	ldb	r2,-8(fp)
  801500:	10800c04 	addi	r2,r2,48
  801504:	e0bffe8d 	sth	r2,-6(fp)
	print_char(2*320/3 -50+30 +54,130,4,0,(char)s);
  801508:	e0bffe8b 	ldhu	r2,-6(fp)
  80150c:	10803fcc 	andi	r2,r2,255
  801510:	1080201c 	xori	r2,r2,128
  801514:	10bfe004 	addi	r2,r2,-128
  801518:	d8800015 	stw	r2,0(sp)
  80151c:	000f883a 	mov	r7,zero
  801520:	01800104 	movi	r6,4
  801524:	01402084 	movi	r5,130
  801528:	01003dc4 	movi	r4,247
  80152c:	0801c780 	call	801c78 <print_char>

	print_char(2*320/3-50 +30 +54+8,130,4,0,':'); 	// :
  801530:	00800e84 	movi	r2,58
  801534:	d8800015 	stw	r2,0(sp)
  801538:	000f883a 	mov	r7,zero
  80153c:	01800104 	movi	r6,4
  801540:	01402084 	movi	r5,130
  801544:	01003fc4 	movi	r4,255
  801548:	0801c780 	call	801c78 <print_char>

	bcd = i2bcd(minutes);							//Minutes
  80154c:	d0a0d317 	ldw	r2,-31924(gp)
  801550:	1009883a 	mov	r4,r2
  801554:	08013a40 	call	8013a4 <i2bcd>
  801558:	e0bffd15 	stw	r2,-12(fp)
	c = (char)((bcd & 0x0F0) >>4);
  80155c:	e0bffd17 	ldw	r2,-12(fp)
  801560:	10803c0c 	andi	r2,r2,240
  801564:	1004d13a 	srli	r2,r2,4
  801568:	e0bffe05 	stb	r2,-8(fp)
	s = (short) c +48;
  80156c:	e0bffe07 	ldb	r2,-8(fp)
  801570:	10800c04 	addi	r2,r2,48
  801574:	e0bffe8d 	sth	r2,-6(fp)
	print_char(2*320/3-50 +30 +54+8+8, 130,4,0,(char)s);
  801578:	e0bffe8b 	ldhu	r2,-6(fp)
  80157c:	10803fcc 	andi	r2,r2,255
  801580:	1080201c 	xori	r2,r2,128
  801584:	10bfe004 	addi	r2,r2,-128
  801588:	d8800015 	stw	r2,0(sp)
  80158c:	000f883a 	mov	r7,zero
  801590:	01800104 	movi	r6,4
  801594:	01402084 	movi	r5,130
  801598:	010041c4 	movi	r4,263
  80159c:	0801c780 	call	801c78 <print_char>

	c = (char)(bcd & 0x0F);
  8015a0:	e0bffd17 	ldw	r2,-12(fp)
  8015a4:	108003cc 	andi	r2,r2,15
  8015a8:	e0bffe05 	stb	r2,-8(fp)
	s = (short) c +48;
  8015ac:	e0bffe07 	ldb	r2,-8(fp)
  8015b0:	10800c04 	addi	r2,r2,48
  8015b4:	e0bffe8d 	sth	r2,-6(fp)
	print_char(2*320/3-50 +30 +54+8+8+8,130,4,0,(char)s);
  8015b8:	e0bffe8b 	ldhu	r2,-6(fp)
  8015bc:	10803fcc 	andi	r2,r2,255
  8015c0:	1080201c 	xori	r2,r2,128
  8015c4:	10bfe004 	addi	r2,r2,-128
  8015c8:	d8800015 	stw	r2,0(sp)
  8015cc:	000f883a 	mov	r7,zero
  8015d0:	01800104 	movi	r6,4
  8015d4:	01402084 	movi	r5,130
  8015d8:	010043c4 	movi	r4,271
  8015dc:	0801c780 	call	801c78 <print_char>

	print_char(2*320/3-50 +30 +54+8+8+8+8,130,4,0,':');// :
  8015e0:	00800e84 	movi	r2,58
  8015e4:	d8800015 	stw	r2,0(sp)
  8015e8:	000f883a 	mov	r7,zero
  8015ec:	01800104 	movi	r6,4
  8015f0:	01402084 	movi	r5,130
  8015f4:	010045c4 	movi	r4,279
  8015f8:	0801c780 	call	801c78 <print_char>


	bcd = i2bcd(seconds);								//seconds
  8015fc:	d0a0d217 	ldw	r2,-31928(gp)
  801600:	1009883a 	mov	r4,r2
  801604:	08013a40 	call	8013a4 <i2bcd>
  801608:	e0bffd15 	stw	r2,-12(fp)
		c = (char)((bcd & 0x0F0) >>4);
  80160c:	e0bffd17 	ldw	r2,-12(fp)
  801610:	10803c0c 	andi	r2,r2,240
  801614:	1004d13a 	srli	r2,r2,4
  801618:	e0bffe05 	stb	r2,-8(fp)
		s = (short) c +48;
  80161c:	e0bffe07 	ldb	r2,-8(fp)
  801620:	10800c04 	addi	r2,r2,48
  801624:	e0bffe8d 	sth	r2,-6(fp)
		print_char(2*320/3-50 +30 +54+40, 130,4,0,(char)s);
  801628:	e0bffe8b 	ldhu	r2,-6(fp)
  80162c:	10803fcc 	andi	r2,r2,255
  801630:	1080201c 	xori	r2,r2,128
  801634:	10bfe004 	addi	r2,r2,-128
  801638:	d8800015 	stw	r2,0(sp)
  80163c:	000f883a 	mov	r7,zero
  801640:	01800104 	movi	r6,4
  801644:	01402084 	movi	r5,130
  801648:	010047c4 	movi	r4,287
  80164c:	0801c780 	call	801c78 <print_char>

		c = (char)(bcd & 0x0F);
  801650:	e0bffd17 	ldw	r2,-12(fp)
  801654:	108003cc 	andi	r2,r2,15
  801658:	e0bffe05 	stb	r2,-8(fp)
		s = (short) c +48;
  80165c:	e0bffe07 	ldb	r2,-8(fp)
  801660:	10800c04 	addi	r2,r2,48
  801664:	e0bffe8d 	sth	r2,-6(fp)
		print_char(2*320/3-50 +30 +54+48,130,4,0,(char)s);
  801668:	e0bffe8b 	ldhu	r2,-6(fp)
  80166c:	10803fcc 	andi	r2,r2,255
  801670:	1080201c 	xori	r2,r2,128
  801674:	10bfe004 	addi	r2,r2,-128
  801678:	d8800015 	stw	r2,0(sp)
  80167c:	000f883a 	mov	r7,zero
  801680:	01800104 	movi	r6,4
  801684:	01402084 	movi	r5,130
  801688:	010049c4 	movi	r4,295
  80168c:	0801c780 	call	801c78 <print_char>
}
  801690:	0001883a 	nop
  801694:	e037883a 	mov	sp,fp
  801698:	dfc00117 	ldw	ra,4(sp)
  80169c:	df000017 	ldw	fp,0(sp)
  8016a0:	dec00204 	addi	sp,sp,8
  8016a4:	f800283a 	ret

008016a8 <high_lite_dot2Hz_sampling_on_screen>:
extern void high_lite_dot2Hz_sampling_on_screen(void)
{
  8016a8:	defffd04 	addi	sp,sp,-12
  8016ac:	dfc00215 	stw	ra,8(sp)
  8016b0:	df000115 	stw	fp,4(sp)
  8016b4:	df000104 	addi	fp,sp,4
	//Färga texten för den samplingsfrekvens som valts
						print_str(2*320/3 +5,210-60,5,"1st btn 5Hz");
  8016b8:	01c02034 	movhi	r7,128
  8016bc:	39d02604 	addi	r7,r7,16536
  8016c0:	01800144 	movi	r6,5
  8016c4:	01402584 	movi	r5,150
  8016c8:	01003684 	movi	r4,218
  8016cc:	0801da80 	call	801da8 <print_str>
						print_str(2*320/3 +5,210-30,5,"2nd btn 1Hz");
  8016d0:	01c02034 	movhi	r7,128
  8016d4:	39d02904 	addi	r7,r7,16548
  8016d8:	01800144 	movi	r6,5
  8016dc:	01402d04 	movi	r5,180
  8016e0:	01003684 	movi	r4,218
  8016e4:	0801da80 	call	801da8 <print_str>
						print_str(2*320/3 +5,210,2,"3d btn .2Hz");
  8016e8:	01c02034 	movhi	r7,128
  8016ec:	39d02c04 	addi	r7,r7,16560
  8016f0:	01800084 	movi	r6,2
  8016f4:	01403484 	movi	r5,210
  8016f8:	01003684 	movi	r4,218
  8016fc:	0801da80 	call	801da8 <print_str>
						for(int i = 0; i < 5; i++)
  801700:	e03fff15 	stw	zero,-4(fp)
  801704:	00001406 	br	801758 <high_lite_dot2Hz_sampling_on_screen+0xb0>
						{
							TIMER_RESET;
  801708:	00d00034 	movhi	r3,16384
  80170c:	00804234 	movhi	r2,264
  801710:	10849904 	addi	r2,r2,4708
  801714:	10c00035 	stwio	r3,0(r2)
							TIMER_START;
  801718:	00e00034 	movhi	r3,32768
  80171c:	00804234 	movhi	r2,264
  801720:	10849904 	addi	r2,r2,4708
  801724:	10c00035 	stwio	r3,0(r2)

							while(TIMER_READ < 50000000);
  801728:	0001883a 	nop
  80172c:	00804234 	movhi	r2,264
  801730:	10849804 	addi	r2,r2,4704
  801734:	10c00037 	ldwio	r3,0(r2)
  801738:	0080bef4 	movhi	r2,763
  80173c:	10bc1fc4 	addi	r2,r2,-3969
  801740:	10fffa0e 	bge	r2,r3,80172c <__alt_data_end+0xff80172c>
							update_time(1);
  801744:	01000044 	movi	r4,1
  801748:	08014400 	call	801440 <update_time>
{
	//Färga texten för den samplingsfrekvens som valts
						print_str(2*320/3 +5,210-60,5,"1st btn 5Hz");
						print_str(2*320/3 +5,210-30,5,"2nd btn 1Hz");
						print_str(2*320/3 +5,210,2,"3d btn .2Hz");
						for(int i = 0; i < 5; i++)
  80174c:	e0bfff17 	ldw	r2,-4(fp)
  801750:	10800044 	addi	r2,r2,1
  801754:	e0bfff15 	stw	r2,-4(fp)
  801758:	e0bfff17 	ldw	r2,-4(fp)
  80175c:	10800150 	cmplti	r2,r2,5
  801760:	103fe91e 	bne	r2,zero,801708 <__alt_data_end+0xff801708>

							while(TIMER_READ < 50000000);
							update_time(1);
						}

}
  801764:	0001883a 	nop
  801768:	e037883a 	mov	sp,fp
  80176c:	dfc00117 	ldw	ra,4(sp)
  801770:	df000017 	ldw	fp,0(sp)
  801774:	dec00204 	addi	sp,sp,8
  801778:	f800283a 	ret

0080177c <high_lite_1Hz_sampling_on_screen>:

extern void high_lite_1Hz_sampling_on_screen(void)
{
  80177c:	defffe04 	addi	sp,sp,-8
  801780:	dfc00115 	stw	ra,4(sp)
  801784:	df000015 	stw	fp,0(sp)
  801788:	d839883a 	mov	fp,sp
	//Färga texten för den samplingsfrekvens som valts
				print_str(2*320/3 +5,210-60,5,"1st btn 5Hz");
  80178c:	01c02034 	movhi	r7,128
  801790:	39d02604 	addi	r7,r7,16536
  801794:	01800144 	movi	r6,5
  801798:	01402584 	movi	r5,150
  80179c:	01003684 	movi	r4,218
  8017a0:	0801da80 	call	801da8 <print_str>
				print_str(2*320/3 +5,210-30,2,"2nd btn 1Hz");
  8017a4:	01c02034 	movhi	r7,128
  8017a8:	39d02904 	addi	r7,r7,16548
  8017ac:	01800084 	movi	r6,2
  8017b0:	01402d04 	movi	r5,180
  8017b4:	01003684 	movi	r4,218
  8017b8:	0801da80 	call	801da8 <print_str>
				print_str(2*320/3 +5,210,5,"3d btn .2Hz");
  8017bc:	01c02034 	movhi	r7,128
  8017c0:	39d02c04 	addi	r7,r7,16560
  8017c4:	01800144 	movi	r6,5
  8017c8:	01403484 	movi	r5,210
  8017cc:	01003684 	movi	r4,218
  8017d0:	0801da80 	call	801da8 <print_str>
				TIMER_RESET;
  8017d4:	00d00034 	movhi	r3,16384
  8017d8:	00804234 	movhi	r2,264
  8017dc:	10849904 	addi	r2,r2,4708
  8017e0:	10c00035 	stwio	r3,0(r2)
				TIMER_START;
  8017e4:	00e00034 	movhi	r3,32768
  8017e8:	00804234 	movhi	r2,264
  8017ec:	10849904 	addi	r2,r2,4708
  8017f0:	10c00035 	stwio	r3,0(r2)
					while(TIMER_READ < 50000000);
  8017f4:	0001883a 	nop
  8017f8:	00804234 	movhi	r2,264
  8017fc:	10849804 	addi	r2,r2,4704
  801800:	10c00037 	ldwio	r3,0(r2)
  801804:	0080bef4 	movhi	r2,763
  801808:	10bc1fc4 	addi	r2,r2,-3969
  80180c:	10fffa0e 	bge	r2,r3,8017f8 <__alt_data_end+0xff8017f8>
					update_time(1);
  801810:	01000044 	movi	r4,1
  801814:	08014400 	call	801440 <update_time>
					TIMER_RESET;
  801818:	00d00034 	movhi	r3,16384
  80181c:	00804234 	movhi	r2,264
  801820:	10849904 	addi	r2,r2,4708
  801824:	10c00035 	stwio	r3,0(r2)
					TIMER_START;
  801828:	00e00034 	movhi	r3,32768
  80182c:	00804234 	movhi	r2,264
  801830:	10849904 	addi	r2,r2,4708
  801834:	10c00035 	stwio	r3,0(r2)
}
  801838:	0001883a 	nop
  80183c:	e037883a 	mov	sp,fp
  801840:	dfc00117 	ldw	ra,4(sp)
  801844:	df000017 	ldw	fp,0(sp)
  801848:	dec00204 	addi	sp,sp,8
  80184c:	f800283a 	ret

00801850 <high_lite_5Hz_sampling_on_screen>:

void high_lite_5Hz_sampling_on_screen(void)
{
  801850:	defffd04 	addi	sp,sp,-12
  801854:	dfc00215 	stw	ra,8(sp)
  801858:	df000115 	stw	fp,4(sp)
  80185c:	df000104 	addi	fp,sp,4
			int sub_seconds = 0;
  801860:	e03fff15 	stw	zero,-4(fp)
	//Färga texten för den samplingsfrekvens som valts
			print_str(2*320/3 +5,210-60,2,"1st btn 5Hz");
  801864:	01c02034 	movhi	r7,128
  801868:	39d02604 	addi	r7,r7,16536
  80186c:	01800084 	movi	r6,2
  801870:	01402584 	movi	r5,150
  801874:	01003684 	movi	r4,218
  801878:	0801da80 	call	801da8 <print_str>
			print_str(2*320/3 +5,210-30,5,"2nd btn 1Hz");
  80187c:	01c02034 	movhi	r7,128
  801880:	39d02904 	addi	r7,r7,16548
  801884:	01800144 	movi	r6,5
  801888:	01402d04 	movi	r5,180
  80188c:	01003684 	movi	r4,218
  801890:	0801da80 	call	801da8 <print_str>
			print_str(2*320/3 +5,210,5,"3d btn .2Hz");
  801894:	01c02034 	movhi	r7,128
  801898:	39d02c04 	addi	r7,r7,16560
  80189c:	01800144 	movi	r6,5
  8018a0:	01403484 	movi	r5,210
  8018a4:	01003684 	movi	r4,218
  8018a8:	0801da80 	call	801da8 <print_str>
			TIMER_RESET;
  8018ac:	00d00034 	movhi	r3,16384
  8018b0:	00804234 	movhi	r2,264
  8018b4:	10849904 	addi	r2,r2,4708
  8018b8:	10c00035 	stwio	r3,0(r2)
			TIMER_START;
  8018bc:	00e00034 	movhi	r3,32768
  8018c0:	00804234 	movhi	r2,264
  8018c4:	10849904 	addi	r2,r2,4708
  8018c8:	10c00035 	stwio	r3,0(r2)
			while(TIMER_READ < 100000);
  8018cc:	0001883a 	nop
  8018d0:	00804234 	movhi	r2,264
  8018d4:	10849804 	addi	r2,r2,4704
  8018d8:	10c00037 	ldwio	r3,0(r2)
  8018dc:	008000b4 	movhi	r2,2
  8018e0:	10a1a7c4 	addi	r2,r2,-31073
  8018e4:	10fffa0e 	bge	r2,r3,8018d0 <__alt_data_end+0xff8018d0>
			sub_seconds++;
  8018e8:	e0bfff17 	ldw	r2,-4(fp)
  8018ec:	10800044 	addi	r2,r2,1
  8018f0:	e0bfff15 	stw	r2,-4(fp)
			if(sub_seconds == 5)
  8018f4:	e0bfff17 	ldw	r2,-4(fp)
  8018f8:	10800158 	cmpnei	r2,r2,5
  8018fc:	1000031e 	bne	r2,zero,80190c <high_lite_5Hz_sampling_on_screen+0xbc>
			{
				update_time(1);
  801900:	01000044 	movi	r4,1
  801904:	08014400 	call	801440 <update_time>
				sub_seconds = 0;
  801908:	e03fff15 	stw	zero,-4(fp)
			}
}
  80190c:	0001883a 	nop
  801910:	e037883a 	mov	sp,fp
  801914:	dfc00117 	ldw	ra,4(sp)
  801918:	df000017 	ldw	fp,0(sp)
  80191c:	dec00204 	addi	sp,sp,8
  801920:	f800283a 	ret

00801924 <draw_sampling_frequecy_sub_screen>:

extern void draw_sampling_frequecy_sub_screen(void)
{
  801924:	defffd04 	addi	sp,sp,-12
  801928:	dfc00215 	stw	ra,8(sp)
  80192c:	df000115 	stw	fp,4(sp)
  801930:	df000104 	addi	fp,sp,4
	for(int i = 0; i < 78600; i++)
  801934:	e03fff15 	stw	zero,-4(fp)
  801938:	00000b06 	br	801968 <draw_sampling_frequecy_sub_screen+0x44>
				set_address_pixel(i, 0);
  80193c:	e0bfff17 	ldw	r2,-4(fp)
  801940:	1085883a 	add	r2,r2,r2
  801944:	1085883a 	add	r2,r2,r2
  801948:	1007883a 	mov	r3,r2
  80194c:	00804034 	movhi	r2,256
  801950:	1885883a 	add	r2,r3,r2
  801954:	0007883a 	mov	r3,zero
  801958:	10c00035 	stwio	r3,0(r2)
			}
}

extern void draw_sampling_frequecy_sub_screen(void)
{
	for(int i = 0; i < 78600; i++)
  80195c:	e0bfff17 	ldw	r2,-4(fp)
  801960:	10800044 	addi	r2,r2,1
  801964:	e0bfff15 	stw	r2,-4(fp)
  801968:	e0ffff17 	ldw	r3,-4(fp)
  80196c:	00800074 	movhi	r2,1
  801970:	108cc1c4 	addi	r2,r2,13063
  801974:	10fff10e 	bge	r2,r3,80193c <__alt_data_end+0xff80193c>
				set_address_pixel(i, 0);

			print_hline(0,120,320,6);
  801978:	01c00184 	movi	r7,6
  80197c:	01805004 	movi	r6,320
  801980:	01401e04 	movi	r5,120
  801984:	0009883a 	mov	r4,zero
  801988:	0801ad80 	call	801ad8 <print_hline>
			print_vline(320/3,0,240,6);
  80198c:	01c00184 	movi	r7,6
  801990:	01803c04 	movi	r6,240
  801994:	000b883a 	mov	r5,zero
  801998:	01001a84 	movi	r4,106
  80199c:	0801ba80 	call	801ba8 <print_vline>
			print_vline(2*320/3,0,240,6);
  8019a0:	01c00184 	movi	r7,6
  8019a4:	01803c04 	movi	r6,240
  8019a8:	000b883a 	mov	r5,zero
  8019ac:	01003544 	movi	r4,213
  8019b0:	0801ba80 	call	801ba8 <print_vline>

			print_str(2*320/3 +5,210-60,5,"1st btn 5Hz");
  8019b4:	01c02034 	movhi	r7,128
  8019b8:	39d02604 	addi	r7,r7,16536
  8019bc:	01800144 	movi	r6,5
  8019c0:	01402584 	movi	r5,150
  8019c4:	01003684 	movi	r4,218
  8019c8:	0801da80 	call	801da8 <print_str>
			print_str(2*320/3 +5,210-30,5,"2nd btn 1Hz");
  8019cc:	01c02034 	movhi	r7,128
  8019d0:	39d02904 	addi	r7,r7,16548
  8019d4:	01800144 	movi	r6,5
  8019d8:	01402d04 	movi	r5,180
  8019dc:	01003684 	movi	r4,218
  8019e0:	0801da80 	call	801da8 <print_str>
			print_str(2*320/3 +5,210,5,"3d btn .2Hz");
  8019e4:	01c02034 	movhi	r7,128
  8019e8:	39d02c04 	addi	r7,r7,16560
  8019ec:	01800144 	movi	r6,5
  8019f0:	01403484 	movi	r5,210
  8019f4:	01003684 	movi	r4,218
  8019f8:	0801da80 	call	801da8 <print_str>
			print_str(2*320/3 +5,230,5,"L.Karagiannis");
  8019fc:	01c02034 	movhi	r7,128
  801a00:	39d02f04 	addi	r7,r7,16572
  801a04:	01800144 	movi	r6,5
  801a08:	01403984 	movi	r5,230
  801a0c:	01003684 	movi	r4,218
  801a10:	0801da80 	call	801da8 <print_str>

}
  801a14:	0001883a 	nop
  801a18:	e037883a 	mov	sp,fp
  801a1c:	dfc00117 	ldw	ra,4(sp)
  801a20:	df000017 	ldw	fp,0(sp)
  801a24:	dec00204 	addi	sp,sp,8
  801a28:	f800283a 	ret

00801a2c <print_pix>:


void print_pix(alt_u32 x,alt_u32 y,alt_u32 rgb)
{
  801a2c:	defffb04 	addi	sp,sp,-20
  801a30:	dfc00415 	stw	ra,16(sp)
  801a34:	df000315 	stw	fp,12(sp)
  801a38:	df000304 	addi	fp,sp,12
  801a3c:	e13ffd15 	stw	r4,-12(fp)
  801a40:	e17ffe15 	stw	r5,-8(fp)
  801a44:	e1bfff15 	stw	r6,-4(fp)
	if(rgb <= 7 && rgb >= 0)
  801a48:	e0bfff17 	ldw	r2,-4(fp)
  801a4c:	10800228 	cmpgeui	r2,r2,8
  801a50:	10000e1e 	bne	r2,zero,801a8c <print_pix+0x60>
		set_pixel(x,y,rgb);
  801a54:	01405004 	movi	r5,320
  801a58:	e13ffe17 	ldw	r4,-8(fp)
  801a5c:	08024b40 	call	8024b4 <__mulsi3>
  801a60:	1007883a 	mov	r3,r2
  801a64:	e0bffd17 	ldw	r2,-12(fp)
  801a68:	1885883a 	add	r2,r3,r2
  801a6c:	1085883a 	add	r2,r2,r2
  801a70:	1085883a 	add	r2,r2,r2
  801a74:	1007883a 	mov	r3,r2
  801a78:	00804034 	movhi	r2,256
  801a7c:	1885883a 	add	r2,r3,r2
  801a80:	e0ffff17 	ldw	r3,-4(fp)
  801a84:	10c00035 	stwio	r3,0(r2)
	else
		set_pixel(x,y,0);
}
  801a88:	00000d06 	br	801ac0 <print_pix+0x94>
void print_pix(alt_u32 x,alt_u32 y,alt_u32 rgb)
{
	if(rgb <= 7 && rgb >= 0)
		set_pixel(x,y,rgb);
	else
		set_pixel(x,y,0);
  801a8c:	01405004 	movi	r5,320
  801a90:	e13ffe17 	ldw	r4,-8(fp)
  801a94:	08024b40 	call	8024b4 <__mulsi3>
  801a98:	1007883a 	mov	r3,r2
  801a9c:	e0bffd17 	ldw	r2,-12(fp)
  801aa0:	1885883a 	add	r2,r3,r2
  801aa4:	1085883a 	add	r2,r2,r2
  801aa8:	1085883a 	add	r2,r2,r2
  801aac:	1007883a 	mov	r3,r2
  801ab0:	00804034 	movhi	r2,256
  801ab4:	1885883a 	add	r2,r3,r2
  801ab8:	0007883a 	mov	r3,zero
  801abc:	10c00035 	stwio	r3,0(r2)
}
  801ac0:	0001883a 	nop
  801ac4:	e037883a 	mov	sp,fp
  801ac8:	dfc00117 	ldw	ra,4(sp)
  801acc:	df000017 	ldw	fp,0(sp)
  801ad0:	dec00204 	addi	sp,sp,8
  801ad4:	f800283a 	ret

00801ad8 <print_hline>:
void print_hline(alt_u32 x_start,alt_u32 y_start, alt_u32 len,alt_u32 RGB){
  801ad8:	defff804 	addi	sp,sp,-32
  801adc:	dfc00715 	stw	ra,28(sp)
  801ae0:	df000615 	stw	fp,24(sp)
  801ae4:	df000604 	addi	fp,sp,24
  801ae8:	e13ffc15 	stw	r4,-16(fp)
  801aec:	e17ffd15 	stw	r5,-12(fp)
  801af0:	e1bffe15 	stw	r6,-8(fp)
  801af4:	e1ffff15 	stw	r7,-4(fp)



	if(x_start + len <= 320){
  801af8:	e0fffc17 	ldw	r3,-16(fp)
  801afc:	e0bffe17 	ldw	r2,-8(fp)
  801b00:	1885883a 	add	r2,r3,r2
  801b04:	10805068 	cmpgeui	r2,r2,321
  801b08:	1000101e 	bne	r2,zero,801b4c <print_hline+0x74>
		for(int i = 0; i < len; i++){
  801b0c:	e03ffa15 	stw	zero,-24(fp)
  801b10:	00000a06 	br	801b3c <print_hline+0x64>
			print_pix(x_start + i,y_start, RGB);
  801b14:	e0fffa17 	ldw	r3,-24(fp)
  801b18:	e0bffc17 	ldw	r2,-16(fp)
  801b1c:	1885883a 	add	r2,r3,r2
  801b20:	e1bfff17 	ldw	r6,-4(fp)
  801b24:	e17ffd17 	ldw	r5,-12(fp)
  801b28:	1009883a 	mov	r4,r2
  801b2c:	0801a2c0 	call	801a2c <print_pix>
void print_hline(alt_u32 x_start,alt_u32 y_start, alt_u32 len,alt_u32 RGB){



	if(x_start + len <= 320){
		for(int i = 0; i < len; i++){
  801b30:	e0bffa17 	ldw	r2,-24(fp)
  801b34:	10800044 	addi	r2,r2,1
  801b38:	e0bffa15 	stw	r2,-24(fp)
  801b3c:	e0fffa17 	ldw	r3,-24(fp)
  801b40:	e0bffe17 	ldw	r2,-8(fp)
  801b44:	18bff336 	bltu	r3,r2,801b14 <__alt_data_end+0xff801b14>
		for(int i = 0; i < (320-x_start); i++){
					print_pix(x_start + i,y_start, RGB);
		}
	}

}
  801b48:	00001106 	br	801b90 <print_hline+0xb8>
			print_pix(x_start + i,y_start, RGB);
		}
	}
	else{

		for(int i = 0; i < (320-x_start); i++){
  801b4c:	e03ffb15 	stw	zero,-20(fp)
  801b50:	00000a06 	br	801b7c <print_hline+0xa4>
					print_pix(x_start + i,y_start, RGB);
  801b54:	e0fffb17 	ldw	r3,-20(fp)
  801b58:	e0bffc17 	ldw	r2,-16(fp)
  801b5c:	1885883a 	add	r2,r3,r2
  801b60:	e1bfff17 	ldw	r6,-4(fp)
  801b64:	e17ffd17 	ldw	r5,-12(fp)
  801b68:	1009883a 	mov	r4,r2
  801b6c:	0801a2c0 	call	801a2c <print_pix>
			print_pix(x_start + i,y_start, RGB);
		}
	}
	else{

		for(int i = 0; i < (320-x_start); i++){
  801b70:	e0bffb17 	ldw	r2,-20(fp)
  801b74:	10800044 	addi	r2,r2,1
  801b78:	e0bffb15 	stw	r2,-20(fp)
  801b7c:	00c05004 	movi	r3,320
  801b80:	e0bffc17 	ldw	r2,-16(fp)
  801b84:	1885c83a 	sub	r2,r3,r2
  801b88:	e0fffb17 	ldw	r3,-20(fp)
  801b8c:	18bff136 	bltu	r3,r2,801b54 <__alt_data_end+0xff801b54>
					print_pix(x_start + i,y_start, RGB);
		}
	}

}
  801b90:	0001883a 	nop
  801b94:	e037883a 	mov	sp,fp
  801b98:	dfc00117 	ldw	ra,4(sp)
  801b9c:	df000017 	ldw	fp,0(sp)
  801ba0:	dec00204 	addi	sp,sp,8
  801ba4:	f800283a 	ret

00801ba8 <print_vline>:
void print_vline(alt_u32 x_start,alt_u32 y_start, alt_u32 len, alt_u32 RGB)
{
  801ba8:	defff804 	addi	sp,sp,-32
  801bac:	dfc00715 	stw	ra,28(sp)
  801bb0:	df000615 	stw	fp,24(sp)
  801bb4:	df000604 	addi	fp,sp,24
  801bb8:	e13ffc15 	stw	r4,-16(fp)
  801bbc:	e17ffd15 	stw	r5,-12(fp)
  801bc0:	e1bffe15 	stw	r6,-8(fp)
  801bc4:	e1ffff15 	stw	r7,-4(fp)
	if(y_start + len <= 240){
  801bc8:	e0fffd17 	ldw	r3,-12(fp)
  801bcc:	e0bffe17 	ldw	r2,-8(fp)
  801bd0:	1885883a 	add	r2,r3,r2
  801bd4:	10803c68 	cmpgeui	r2,r2,241
  801bd8:	1000101e 	bne	r2,zero,801c1c <print_vline+0x74>
			for(int i = 0; i < len; i++){
  801bdc:	e03ffa15 	stw	zero,-24(fp)
  801be0:	00000a06 	br	801c0c <print_vline+0x64>
				print_pix(x_start,y_start + i, RGB);
  801be4:	e0fffa17 	ldw	r3,-24(fp)
  801be8:	e0bffd17 	ldw	r2,-12(fp)
  801bec:	1885883a 	add	r2,r3,r2
  801bf0:	e1bfff17 	ldw	r6,-4(fp)
  801bf4:	100b883a 	mov	r5,r2
  801bf8:	e13ffc17 	ldw	r4,-16(fp)
  801bfc:	0801a2c0 	call	801a2c <print_pix>

}
void print_vline(alt_u32 x_start,alt_u32 y_start, alt_u32 len, alt_u32 RGB)
{
	if(y_start + len <= 240){
			for(int i = 0; i < len; i++){
  801c00:	e0bffa17 	ldw	r2,-24(fp)
  801c04:	10800044 	addi	r2,r2,1
  801c08:	e0bffa15 	stw	r2,-24(fp)
  801c0c:	e0fffa17 	ldw	r3,-24(fp)
  801c10:	e0bffe17 	ldw	r2,-8(fp)
  801c14:	18bff336 	bltu	r3,r2,801be4 <__alt_data_end+0xff801be4>

			for(int i = 0; i < (240-y_start); i++){
						print_pix(x_start,y_start +i , RGB);
			}
		}
}
  801c18:	00001106 	br	801c60 <print_vline+0xb8>
				print_pix(x_start,y_start + i, RGB);
			}
		}
		else{

			for(int i = 0; i < (240-y_start); i++){
  801c1c:	e03ffb15 	stw	zero,-20(fp)
  801c20:	00000a06 	br	801c4c <print_vline+0xa4>
						print_pix(x_start,y_start +i , RGB);
  801c24:	e0fffb17 	ldw	r3,-20(fp)
  801c28:	e0bffd17 	ldw	r2,-12(fp)
  801c2c:	1885883a 	add	r2,r3,r2
  801c30:	e1bfff17 	ldw	r6,-4(fp)
  801c34:	100b883a 	mov	r5,r2
  801c38:	e13ffc17 	ldw	r4,-16(fp)
  801c3c:	0801a2c0 	call	801a2c <print_pix>
				print_pix(x_start,y_start + i, RGB);
			}
		}
		else{

			for(int i = 0; i < (240-y_start); i++){
  801c40:	e0bffb17 	ldw	r2,-20(fp)
  801c44:	10800044 	addi	r2,r2,1
  801c48:	e0bffb15 	stw	r2,-20(fp)
  801c4c:	00c03c04 	movi	r3,240
  801c50:	e0bffd17 	ldw	r2,-12(fp)
  801c54:	1885c83a 	sub	r2,r3,r2
  801c58:	e0fffb17 	ldw	r3,-20(fp)
  801c5c:	18bff136 	bltu	r3,r2,801c24 <__alt_data_end+0xff801c24>
						print_pix(x_start,y_start +i , RGB);
			}
		}
}
  801c60:	0001883a 	nop
  801c64:	e037883a 	mov	sp,fp
  801c68:	dfc00117 	ldw	ra,4(sp)
  801c6c:	df000017 	ldw	fp,0(sp)
  801c70:	dec00204 	addi	sp,sp,8
  801c74:	f800283a 	ret

00801c78 <print_char>:

void  print_char(alt_u32 x,alt_u32 y,alt_u32 rgb,alt_u32 BG_RGB,char Character)
{
  801c78:	defef604 	addi	sp,sp,-1064
  801c7c:	dfc10915 	stw	ra,1060(sp)
  801c80:	df010815 	stw	fp,1056(sp)
  801c84:	df010804 	addi	fp,sp,1056
  801c88:	e13ffb15 	stw	r4,-20(fp)
  801c8c:	e17ffc15 	stw	r5,-16(fp)
  801c90:	e1bffd15 	stw	r6,-12(fp)
  801c94:	e1fffe15 	stw	r7,-8(fp)
  801c98:	e0800217 	ldw	r2,8(fp)
  801c9c:	e0bfff05 	stb	r2,-4(fp)
	 alt_u8 font8x8_basic[128][8] = {
  801ca0:	00802034 	movhi	r2,128
  801ca4:	10903284 	addi	r2,r2,16586
  801ca8:	e0fefa84 	addi	r3,fp,-1046
  801cac:	1009883a 	mov	r4,r2
  801cb0:	00810004 	movi	r2,1024
  801cb4:	100d883a 	mov	r6,r2
  801cb8:	200b883a 	mov	r5,r4
  801cbc:	1809883a 	mov	r4,r3
  801cc0:	080254c0 	call	80254c <memcpy>
	    { 0x00, 0x00, 0x00, 0x00, 0x00, 0x00, 0x00, 0x00}    // U+007F
	};
	alt_u8 temp;
	int row;

	alt_u8  token = (alt_u8)Character;
  801cc4:	e0bfff03 	ldbu	r2,-4(fp)
  801cc8:	e0befa05 	stb	r2,-1048(fp)
	for (row = 0; row <8; row++)
  801ccc:	e03ef815 	stw	zero,-1056(fp)
  801cd0:	00002c06 	br	801d84 <print_char+0x10c>
	{
			temp =  (alt_u8)font8x8_basic[token][row];
  801cd4:	e0befa03 	ldbu	r2,-1048(fp)
  801cd8:	100490fa 	slli	r2,r2,3
  801cdc:	e13ef804 	addi	r4,fp,-1056
  801ce0:	2087883a 	add	r3,r4,r2
  801ce4:	e0bef817 	ldw	r2,-1056(fp)
  801ce8:	1885883a 	add	r2,r3,r2
  801cec:	10800284 	addi	r2,r2,10
  801cf0:	10800003 	ldbu	r2,0(r2)
  801cf4:	e0befa45 	stb	r2,-1047(fp)

			for (int pos = 0 ; pos != 8 ; pos++) {
  801cf8:	e03ef915 	stw	zero,-1052(fp)
  801cfc:	00001b06 	br	801d6c <print_char+0xf4>
			    if (temp & (1 << pos)) {
  801d00:	e0fefa43 	ldbu	r3,-1047(fp)
  801d04:	e0bef917 	ldw	r2,-1052(fp)
  801d08:	1885d83a 	sra	r2,r3,r2
  801d0c:	1080004c 	andi	r2,r2,1
  801d10:	10000a26 	beq	r2,zero,801d3c <print_char+0xc4>
			        // Current bit is set to 1
			    	print_pix(x+pos,y+row,rgb);
  801d14:	e0fef917 	ldw	r3,-1052(fp)
  801d18:	e0bffb17 	ldw	r2,-20(fp)
  801d1c:	1889883a 	add	r4,r3,r2
  801d20:	e0fef817 	ldw	r3,-1056(fp)
  801d24:	e0bffc17 	ldw	r2,-16(fp)
  801d28:	1885883a 	add	r2,r3,r2
  801d2c:	e1bffd17 	ldw	r6,-12(fp)
  801d30:	100b883a 	mov	r5,r2
  801d34:	0801a2c0 	call	801a2c <print_pix>
  801d38:	00000906 	br	801d60 <print_char+0xe8>
			    } else {
			        // Current bit is set to 0
			    	print_pix(x+pos,y+row,BG_RGB);
  801d3c:	e0fef917 	ldw	r3,-1052(fp)
  801d40:	e0bffb17 	ldw	r2,-20(fp)
  801d44:	1889883a 	add	r4,r3,r2
  801d48:	e0fef817 	ldw	r3,-1056(fp)
  801d4c:	e0bffc17 	ldw	r2,-16(fp)
  801d50:	1885883a 	add	r2,r3,r2
  801d54:	e1bffe17 	ldw	r6,-8(fp)
  801d58:	100b883a 	mov	r5,r2
  801d5c:	0801a2c0 	call	801a2c <print_pix>
	alt_u8  token = (alt_u8)Character;
	for (row = 0; row <8; row++)
	{
			temp =  (alt_u8)font8x8_basic[token][row];

			for (int pos = 0 ; pos != 8 ; pos++) {
  801d60:	e0bef917 	ldw	r2,-1052(fp)
  801d64:	10800044 	addi	r2,r2,1
  801d68:	e0bef915 	stw	r2,-1052(fp)
  801d6c:	e0bef917 	ldw	r2,-1052(fp)
  801d70:	10800218 	cmpnei	r2,r2,8
  801d74:	103fe21e 	bne	r2,zero,801d00 <__alt_data_end+0xff801d00>
	};
	alt_u8 temp;
	int row;

	alt_u8  token = (alt_u8)Character;
	for (row = 0; row <8; row++)
  801d78:	e0bef817 	ldw	r2,-1056(fp)
  801d7c:	10800044 	addi	r2,r2,1
  801d80:	e0bef815 	stw	r2,-1056(fp)
  801d84:	e0bef817 	ldw	r2,-1056(fp)
  801d88:	10800210 	cmplti	r2,r2,8
  801d8c:	103fd11e 	bne	r2,zero,801cd4 <__alt_data_end+0xff801cd4>
			        // Current bit is set to 0
			    	print_pix(x+pos,y+row,BG_RGB);
			    }
			}
	}
}
  801d90:	0001883a 	nop
  801d94:	e037883a 	mov	sp,fp
  801d98:	dfc00117 	ldw	ra,4(sp)
  801d9c:	df000017 	ldw	fp,0(sp)
  801da0:	dec00204 	addi	sp,sp,8
  801da4:	f800283a 	ret

00801da8 <print_str>:
void print_str(alt_u32 x_start, alt_u32 y_start,alt_u32 rgb, const char *str)
{
  801da8:	defff804 	addi	sp,sp,-32
  801dac:	dfc00715 	stw	ra,28(sp)
  801db0:	df000615 	stw	fp,24(sp)
  801db4:	df000604 	addi	fp,sp,24
  801db8:	e13ffc15 	stw	r4,-16(fp)
  801dbc:	e17ffd15 	stw	r5,-12(fp)
  801dc0:	e1bffe15 	stw	r6,-8(fp)
  801dc4:	e1ffff15 	stw	r7,-4(fp)
	alt_u16 len = (alt_u16) strlen(str);
  801dc8:	e13fff17 	ldw	r4,-4(fp)
  801dcc:	08025940 	call	802594 <strlen>
  801dd0:	e0bffb8d 	sth	r2,-18(fp)
	alt_u16 i;
	for(i=0; i< len; i++){
  801dd4:	e03ffb0d 	sth	zero,-20(fp)
  801dd8:	00001406 	br	801e2c <print_str+0x84>
		print_char(x_start + i*8,y_start,rgb,0,str[i]);
  801ddc:	e0bffb0b 	ldhu	r2,-20(fp)
  801de0:	100490fa 	slli	r2,r2,3
  801de4:	1007883a 	mov	r3,r2
  801de8:	e0bffc17 	ldw	r2,-16(fp)
  801dec:	1889883a 	add	r4,r3,r2
  801df0:	e0bffb0b 	ldhu	r2,-20(fp)
  801df4:	e0ffff17 	ldw	r3,-4(fp)
  801df8:	1885883a 	add	r2,r3,r2
  801dfc:	10800003 	ldbu	r2,0(r2)
  801e00:	10803fcc 	andi	r2,r2,255
  801e04:	1080201c 	xori	r2,r2,128
  801e08:	10bfe004 	addi	r2,r2,-128
  801e0c:	d8800015 	stw	r2,0(sp)
  801e10:	000f883a 	mov	r7,zero
  801e14:	e1bffe17 	ldw	r6,-8(fp)
  801e18:	e17ffd17 	ldw	r5,-12(fp)
  801e1c:	0801c780 	call	801c78 <print_char>
}
void print_str(alt_u32 x_start, alt_u32 y_start,alt_u32 rgb, const char *str)
{
	alt_u16 len = (alt_u16) strlen(str);
	alt_u16 i;
	for(i=0; i< len; i++){
  801e20:	e0bffb0b 	ldhu	r2,-20(fp)
  801e24:	10800044 	addi	r2,r2,1
  801e28:	e0bffb0d 	sth	r2,-20(fp)
  801e2c:	e0fffb0b 	ldhu	r3,-20(fp)
  801e30:	e0bffb8b 	ldhu	r2,-18(fp)
  801e34:	18bfe936 	bltu	r3,r2,801ddc <__alt_data_end+0xff801ddc>
		print_char(x_start + i*8,y_start,rgb,0,str[i]);
	}
}
  801e38:	0001883a 	nop
  801e3c:	e037883a 	mov	sp,fp
  801e40:	dfc00117 	ldw	ra,4(sp)
  801e44:	df000017 	ldw	fp,0(sp)
  801e48:	dec00204 	addi	sp,sp,8
  801e4c:	f800283a 	ret

00801e50 <print_symmetry_dots_circle>:

void print_symmetry_dots_circle(alt_u32 x, alt_u32 y, alt_u32 x_centrum, alt_u32 y_centrum, alt_u32 rgb)
{
  801e50:	defffa04 	addi	sp,sp,-24
  801e54:	dfc00515 	stw	ra,20(sp)
  801e58:	df000415 	stw	fp,16(sp)
  801e5c:	df000404 	addi	fp,sp,16
  801e60:	e13ffc15 	stw	r4,-16(fp)
  801e64:	e17ffd15 	stw	r5,-12(fp)
  801e68:	e1bffe15 	stw	r6,-8(fp)
  801e6c:	e1ffff15 	stw	r7,-4(fp)
		print_pix(x+x_centrum,y + y_centrum,rgb);
  801e70:	e0fffc17 	ldw	r3,-16(fp)
  801e74:	e0bffe17 	ldw	r2,-8(fp)
  801e78:	1889883a 	add	r4,r3,r2
  801e7c:	e0fffd17 	ldw	r3,-12(fp)
  801e80:	e0bfff17 	ldw	r2,-4(fp)
  801e84:	1885883a 	add	r2,r3,r2
  801e88:	e1800217 	ldw	r6,8(fp)
  801e8c:	100b883a 	mov	r5,r2
  801e90:	0801a2c0 	call	801a2c <print_pix>
		print_pix(x+x_centrum,-y + y_centrum,rgb);
  801e94:	e0fffc17 	ldw	r3,-16(fp)
  801e98:	e0bffe17 	ldw	r2,-8(fp)
  801e9c:	1889883a 	add	r4,r3,r2
  801ea0:	e0ffff17 	ldw	r3,-4(fp)
  801ea4:	e0bffd17 	ldw	r2,-12(fp)
  801ea8:	1885c83a 	sub	r2,r3,r2
  801eac:	e1800217 	ldw	r6,8(fp)
  801eb0:	100b883a 	mov	r5,r2
  801eb4:	0801a2c0 	call	801a2c <print_pix>
		print_pix(-x+x_centrum,y + y_centrum,rgb);
  801eb8:	e0fffe17 	ldw	r3,-8(fp)
  801ebc:	e0bffc17 	ldw	r2,-16(fp)
  801ec0:	1889c83a 	sub	r4,r3,r2
  801ec4:	e0fffd17 	ldw	r3,-12(fp)
  801ec8:	e0bfff17 	ldw	r2,-4(fp)
  801ecc:	1885883a 	add	r2,r3,r2
  801ed0:	e1800217 	ldw	r6,8(fp)
  801ed4:	100b883a 	mov	r5,r2
  801ed8:	0801a2c0 	call	801a2c <print_pix>
		print_pix(-x+x_centrum,-y + y_centrum,rgb);
  801edc:	e0fffe17 	ldw	r3,-8(fp)
  801ee0:	e0bffc17 	ldw	r2,-16(fp)
  801ee4:	1889c83a 	sub	r4,r3,r2
  801ee8:	e0ffff17 	ldw	r3,-4(fp)
  801eec:	e0bffd17 	ldw	r2,-12(fp)
  801ef0:	1885c83a 	sub	r2,r3,r2
  801ef4:	e1800217 	ldw	r6,8(fp)
  801ef8:	100b883a 	mov	r5,r2
  801efc:	0801a2c0 	call	801a2c <print_pix>

		print_pix(y + x_centrum,x+y_centrum,rgb);
  801f00:	e0fffd17 	ldw	r3,-12(fp)
  801f04:	e0bffe17 	ldw	r2,-8(fp)
  801f08:	1889883a 	add	r4,r3,r2
  801f0c:	e0fffc17 	ldw	r3,-16(fp)
  801f10:	e0bfff17 	ldw	r2,-4(fp)
  801f14:	1885883a 	add	r2,r3,r2
  801f18:	e1800217 	ldw	r6,8(fp)
  801f1c:	100b883a 	mov	r5,r2
  801f20:	0801a2c0 	call	801a2c <print_pix>
		print_pix(-y + x_centrum,x+y_centrum,rgb);
  801f24:	e0fffe17 	ldw	r3,-8(fp)
  801f28:	e0bffd17 	ldw	r2,-12(fp)
  801f2c:	1889c83a 	sub	r4,r3,r2
  801f30:	e0fffc17 	ldw	r3,-16(fp)
  801f34:	e0bfff17 	ldw	r2,-4(fp)
  801f38:	1885883a 	add	r2,r3,r2
  801f3c:	e1800217 	ldw	r6,8(fp)
  801f40:	100b883a 	mov	r5,r2
  801f44:	0801a2c0 	call	801a2c <print_pix>
		print_pix(y + x_centrum,-x+y_centrum,rgb);
  801f48:	e0fffd17 	ldw	r3,-12(fp)
  801f4c:	e0bffe17 	ldw	r2,-8(fp)
  801f50:	1889883a 	add	r4,r3,r2
  801f54:	e0ffff17 	ldw	r3,-4(fp)
  801f58:	e0bffc17 	ldw	r2,-16(fp)
  801f5c:	1885c83a 	sub	r2,r3,r2
  801f60:	e1800217 	ldw	r6,8(fp)
  801f64:	100b883a 	mov	r5,r2
  801f68:	0801a2c0 	call	801a2c <print_pix>
		print_pix(-y + x_centrum,-x+y_centrum,rgb);
  801f6c:	e0fffe17 	ldw	r3,-8(fp)
  801f70:	e0bffd17 	ldw	r2,-12(fp)
  801f74:	1889c83a 	sub	r4,r3,r2
  801f78:	e0ffff17 	ldw	r3,-4(fp)
  801f7c:	e0bffc17 	ldw	r2,-16(fp)
  801f80:	1885c83a 	sub	r2,r3,r2
  801f84:	e1800217 	ldw	r6,8(fp)
  801f88:	100b883a 	mov	r5,r2
  801f8c:	0801a2c0 	call	801a2c <print_pix>

}
  801f90:	0001883a 	nop
  801f94:	e037883a 	mov	sp,fp
  801f98:	dfc00117 	ldw	ra,4(sp)
  801f9c:	df000017 	ldw	fp,0(sp)
  801fa0:	dec00204 	addi	sp,sp,8
  801fa4:	f800283a 	ret

00801fa8 <print_empty_circle>:
void print_empty_circle(alt_u32 radie, alt_u32 x_centrum, alt_u32 y_centrum, alt_u32 rgb)
{
  801fa8:	defff604 	addi	sp,sp,-40
  801fac:	dfc00915 	stw	ra,36(sp)
  801fb0:	df000815 	stw	fp,32(sp)
  801fb4:	df000804 	addi	fp,sp,32
  801fb8:	e13ffc15 	stw	r4,-16(fp)
  801fbc:	e17ffd15 	stw	r5,-12(fp)
  801fc0:	e1bffe15 	stw	r6,-8(fp)
  801fc4:	e1ffff15 	stw	r7,-4(fp)
		//unsigned int value;
		//unsigned int radius = radie;
		int x = 0;
  801fc8:	e03ff915 	stw	zero,-28(fp)
		int y = radie;
  801fcc:	e0bffc17 	ldw	r2,-16(fp)
  801fd0:	e0bffa15 	stw	r2,-24(fp)

		print_symmetry_dots_circle(x,y,x_centrum,y_centrum,rgb);
  801fd4:	e0fff917 	ldw	r3,-28(fp)
  801fd8:	e13ffa17 	ldw	r4,-24(fp)
  801fdc:	e0bfff17 	ldw	r2,-4(fp)
  801fe0:	d8800015 	stw	r2,0(sp)
  801fe4:	e1fffe17 	ldw	r7,-8(fp)
  801fe8:	e1bffd17 	ldw	r6,-12(fp)
  801fec:	200b883a 	mov	r5,r4
  801ff0:	1809883a 	mov	r4,r3
  801ff4:	0801e500 	call	801e50 <print_symmetry_dots_circle>
		int h = 1- radie;
  801ff8:	00c00044 	movi	r3,1
  801ffc:	e0bffc17 	ldw	r2,-16(fp)
  802000:	1885c83a 	sub	r2,r3,r2
  802004:	e0bffb15 	stw	r2,-20(fp)
		while(y > x){
  802008:	00003306 	br	8020d8 <print_empty_circle+0x130>
			if (h < 0){//east point
  80200c:	e0bffb17 	ldw	r2,-20(fp)
  802010:	1000150e 	bge	r2,zero,802068 <print_empty_circle+0xc0>

				print_symmetry_dots_circle(x+1,y,x_centrum,y_centrum,rgb);
  802014:	e0bff917 	ldw	r2,-28(fp)
  802018:	10800044 	addi	r2,r2,1
  80201c:	1009883a 	mov	r4,r2
  802020:	e0fffa17 	ldw	r3,-24(fp)
  802024:	e0bfff17 	ldw	r2,-4(fp)
  802028:	d8800015 	stw	r2,0(sp)
  80202c:	e1fffe17 	ldw	r7,-8(fp)
  802030:	e1bffd17 	ldw	r6,-12(fp)
  802034:	180b883a 	mov	r5,r3
  802038:	0801e500 	call	801e50 <print_symmetry_dots_circle>
				h = h +2*x +3;
  80203c:	e0bff917 	ldw	r2,-28(fp)
  802040:	1085883a 	add	r2,r2,r2
  802044:	1007883a 	mov	r3,r2
  802048:	e0bffb17 	ldw	r2,-20(fp)
  80204c:	1885883a 	add	r2,r3,r2
  802050:	108000c4 	addi	r2,r2,3
  802054:	e0bffb15 	stw	r2,-20(fp)
				x= x+1;
  802058:	e0bff917 	ldw	r2,-28(fp)
  80205c:	10800044 	addi	r2,r2,1
  802060:	e0bff915 	stw	r2,-28(fp)
  802064:	00001c06 	br	8020d8 <print_empty_circle+0x130>

			}
			else{
				print_symmetry_dots_circle(x+1,y-1,x_centrum,y_centrum,rgb);
  802068:	e0bff917 	ldw	r2,-28(fp)
  80206c:	10800044 	addi	r2,r2,1
  802070:	1007883a 	mov	r3,r2
  802074:	e0bffa17 	ldw	r2,-24(fp)
  802078:	10bfffc4 	addi	r2,r2,-1
  80207c:	1009883a 	mov	r4,r2
  802080:	e0bfff17 	ldw	r2,-4(fp)
  802084:	d8800015 	stw	r2,0(sp)
  802088:	e1fffe17 	ldw	r7,-8(fp)
  80208c:	e1bffd17 	ldw	r6,-12(fp)
  802090:	200b883a 	mov	r5,r4
  802094:	1809883a 	mov	r4,r3
  802098:	0801e500 	call	801e50 <print_symmetry_dots_circle>
				h= h+2*(x-y)+5;
  80209c:	e0fff917 	ldw	r3,-28(fp)
  8020a0:	e0bffa17 	ldw	r2,-24(fp)
  8020a4:	1885c83a 	sub	r2,r3,r2
  8020a8:	1085883a 	add	r2,r2,r2
  8020ac:	1007883a 	mov	r3,r2
  8020b0:	e0bffb17 	ldw	r2,-20(fp)
  8020b4:	1885883a 	add	r2,r3,r2
  8020b8:	10800144 	addi	r2,r2,5
  8020bc:	e0bffb15 	stw	r2,-20(fp)
				y=y-1;
  8020c0:	e0bffa17 	ldw	r2,-24(fp)
  8020c4:	10bfffc4 	addi	r2,r2,-1
  8020c8:	e0bffa15 	stw	r2,-24(fp)
				x=x+1;
  8020cc:	e0bff917 	ldw	r2,-28(fp)
  8020d0:	10800044 	addi	r2,r2,1
  8020d4:	e0bff915 	stw	r2,-28(fp)
		int x = 0;
		int y = radie;

		print_symmetry_dots_circle(x,y,x_centrum,y_centrum,rgb);
		int h = 1- radie;
		while(y > x){
  8020d8:	e0bffa17 	ldw	r2,-24(fp)
  8020dc:	e0fff917 	ldw	r3,-28(fp)
  8020e0:	18bfca16 	blt	r3,r2,80200c <__alt_data_end+0xff80200c>
				y=y-1;
				x=x+1;
			}

		}
}
  8020e4:	0001883a 	nop
  8020e8:	e037883a 	mov	sp,fp
  8020ec:	dfc00117 	ldw	ra,4(sp)
  8020f0:	df000017 	ldw	fp,0(sp)
  8020f4:	dec00204 	addi	sp,sp,8
  8020f8:	f800283a 	ret

008020fc <print_circle>:
void print_circle(alt_u32 radie, alt_u32 x_centrum, alt_u32 y_centrum, alt_u32 rgb)
{
  8020fc:	defff904 	addi	sp,sp,-28
  802100:	dfc00615 	stw	ra,24(sp)
  802104:	df000515 	stw	fp,20(sp)
  802108:	df000504 	addi	fp,sp,20
  80210c:	e13ffc15 	stw	r4,-16(fp)
  802110:	e17ffd15 	stw	r5,-12(fp)
  802114:	e1bffe15 	stw	r6,-8(fp)
  802118:	e1ffff15 	stw	r7,-4(fp)
	unsigned int radius = radie;
  80211c:	e0bffc17 	ldw	r2,-16(fp)
  802120:	e0bffb15 	stw	r2,-20(fp)

	for(radius = radie; radius > 0; radius--)
  802124:	e0bffc17 	ldw	r2,-16(fp)
  802128:	e0bffb15 	stw	r2,-20(fp)
  80212c:	00000806 	br	802150 <print_circle+0x54>
		print_empty_circle(radius,x_centrum, y_centrum, rgb);
  802130:	e1ffff17 	ldw	r7,-4(fp)
  802134:	e1bffe17 	ldw	r6,-8(fp)
  802138:	e17ffd17 	ldw	r5,-12(fp)
  80213c:	e13ffb17 	ldw	r4,-20(fp)
  802140:	0801fa80 	call	801fa8 <print_empty_circle>
}
void print_circle(alt_u32 radie, alt_u32 x_centrum, alt_u32 y_centrum, alt_u32 rgb)
{
	unsigned int radius = radie;

	for(radius = radie; radius > 0; radius--)
  802144:	e0bffb17 	ldw	r2,-20(fp)
  802148:	10bfffc4 	addi	r2,r2,-1
  80214c:	e0bffb15 	stw	r2,-20(fp)
  802150:	e0bffb17 	ldw	r2,-20(fp)
  802154:	103ff61e 	bne	r2,zero,802130 <__alt_data_end+0xff802130>
		print_empty_circle(radius,x_centrum, y_centrum, rgb);
}
  802158:	0001883a 	nop
  80215c:	e037883a 	mov	sp,fp
  802160:	dfc00117 	ldw	ra,4(sp)
  802164:	df000017 	ldw	fp,0(sp)
  802168:	dec00204 	addi	sp,sp,8
  80216c:	f800283a 	ret

00802170 <clear_screen>:
void clear_screen(alt_u32 rgb){
  802170:	defffb04 	addi	sp,sp,-20
  802174:	dfc00415 	stw	ra,16(sp)
  802178:	df000315 	stw	fp,12(sp)
  80217c:	df000304 	addi	fp,sp,12
  802180:	e13fff15 	stw	r4,-4(fp)
	for(int y = 0 ;y <240;y++)
  802184:	e03ffd15 	stw	zero,-12(fp)
  802188:	00001106 	br	8021d0 <clear_screen+0x60>
		for(int x = 0; x < 320; x++)
  80218c:	e03ffe15 	stw	zero,-8(fp)
  802190:	00000906 	br	8021b8 <clear_screen+0x48>
			print_pix(x,y,rgb);
  802194:	e0bffe17 	ldw	r2,-8(fp)
  802198:	e0fffd17 	ldw	r3,-12(fp)
  80219c:	e1bfff17 	ldw	r6,-4(fp)
  8021a0:	180b883a 	mov	r5,r3
  8021a4:	1009883a 	mov	r4,r2
  8021a8:	0801a2c0 	call	801a2c <print_pix>
	for(radius = radie; radius > 0; radius--)
		print_empty_circle(radius,x_centrum, y_centrum, rgb);
}
void clear_screen(alt_u32 rgb){
	for(int y = 0 ;y <240;y++)
		for(int x = 0; x < 320; x++)
  8021ac:	e0bffe17 	ldw	r2,-8(fp)
  8021b0:	10800044 	addi	r2,r2,1
  8021b4:	e0bffe15 	stw	r2,-8(fp)
  8021b8:	e0bffe17 	ldw	r2,-8(fp)
  8021bc:	10805010 	cmplti	r2,r2,320
  8021c0:	103ff41e 	bne	r2,zero,802194 <__alt_data_end+0xff802194>

	for(radius = radie; radius > 0; radius--)
		print_empty_circle(radius,x_centrum, y_centrum, rgb);
}
void clear_screen(alt_u32 rgb){
	for(int y = 0 ;y <240;y++)
  8021c4:	e0bffd17 	ldw	r2,-12(fp)
  8021c8:	10800044 	addi	r2,r2,1
  8021cc:	e0bffd15 	stw	r2,-12(fp)
  8021d0:	e0bffd17 	ldw	r2,-12(fp)
  8021d4:	10803c10 	cmplti	r2,r2,240
  8021d8:	103fec1e 	bne	r2,zero,80218c <__alt_data_end+0xff80218c>
		for(int x = 0; x < 320; x++)
			print_pix(x,y,rgb);
}
  8021dc:	0001883a 	nop
  8021e0:	e037883a 	mov	sp,fp
  8021e4:	dfc00117 	ldw	ra,4(sp)
  8021e8:	df000017 	ldw	fp,0(sp)
  8021ec:	dec00204 	addi	sp,sp,8
  8021f0:	f800283a 	ret

008021f4 <read_pixel_ram_int>:

pixel_data read_pixel_ram_int(alt_u32 x_start, alt_u32 y_start)
{
  8021f4:	defffb04 	addi	sp,sp,-20
  8021f8:	dfc00415 	stw	ra,16(sp)
  8021fc:	df000315 	stw	fp,12(sp)
  802200:	df000304 	addi	fp,sp,12
  802204:	e13ffe15 	stw	r4,-8(fp)
  802208:	e17fff15 	stw	r5,-4(fp)
	alt_u32 i = read_pixel(x_start, y_start);
  80220c:	01405004 	movi	r5,320
  802210:	e13fff17 	ldw	r4,-4(fp)
  802214:	08024b40 	call	8024b4 <__mulsi3>
  802218:	1007883a 	mov	r3,r2
  80221c:	e0bffe17 	ldw	r2,-8(fp)
  802220:	1885883a 	add	r2,r3,r2
  802224:	1085883a 	add	r2,r2,r2
  802228:	1085883a 	add	r2,r2,r2
  80222c:	1007883a 	mov	r3,r2
  802230:	00804034 	movhi	r2,256
  802234:	1885883a 	add	r2,r3,r2
  802238:	10800037 	ldwio	r2,0(r2)
  80223c:	e0bffd15 	stw	r2,-12(fp)
	return (alt_u8) i;
  802240:	e0bffd17 	ldw	r2,-12(fp)
}
  802244:	e037883a 	mov	sp,fp
  802248:	dfc00117 	ldw	ra,4(sp)
  80224c:	df000017 	ldw	fp,0(sp)
  802250:	dec00204 	addi	sp,sp,8
  802254:	f800283a 	ret

00802258 <print_welcome_screen>:



void print_welcome_screen(){
  802258:	defffd04 	addi	sp,sp,-12
  80225c:	dfc00215 	stw	ra,8(sp)
  802260:	df000115 	stw	fp,4(sp)
  802264:	df000104 	addi	fp,sp,4
	clear_screen(0);
  802268:	0009883a 	mov	r4,zero
  80226c:	08021700 	call	802170 <clear_screen>

	print_circle(10,  320/2, 240/2, 3);
  802270:	01c000c4 	movi	r7,3
  802274:	01801e04 	movi	r6,120
  802278:	01402804 	movi	r5,160
  80227c:	01000284 	movi	r4,10
  802280:	08020fc0 	call	8020fc <print_circle>
	print_str(50,50,2,"Welcome to measurement station!");
  802284:	01c02034 	movhi	r7,128
  802288:	39d13304 	addi	r7,r7,17612
  80228c:	01800084 	movi	r6,2
  802290:	01400c84 	movi	r5,50
  802294:	01000c84 	movi	r4,50
  802298:	0801da80 	call	801da8 <print_str>
	print_str(50,150,2,"Press any key to continue");
  80229c:	01c02034 	movhi	r7,128
  8022a0:	39d13b04 	addi	r7,r7,17644
  8022a4:	01800084 	movi	r6,2
  8022a8:	01402584 	movi	r5,150
  8022ac:	01000c84 	movi	r4,50
  8022b0:	0801da80 	call	801da8 <print_str>
	alt_u32 key = 0;
  8022b4:	e03fff15 	stw	zero,-4(fp)
	key = IORD_32DIRECT(KEY_INPUT_BASE,0);
  8022b8:	00804234 	movhi	r2,264
  8022bc:	10848804 	addi	r2,r2,4640
  8022c0:	10800037 	ldwio	r2,0(r2)
  8022c4:	e0bfff15 	stw	r2,-4(fp)
	//alt_printf("key = %d", key);
	while(key == 7)
  8022c8:	00000406 	br	8022dc <print_welcome_screen+0x84>
		key = IORD_32DIRECT(KEY_INPUT_BASE,0);
  8022cc:	00804234 	movhi	r2,264
  8022d0:	10848804 	addi	r2,r2,4640
  8022d4:	10800037 	ldwio	r2,0(r2)
  8022d8:	e0bfff15 	stw	r2,-4(fp)
	print_str(50,50,2,"Welcome to measurement station!");
	print_str(50,150,2,"Press any key to continue");
	alt_u32 key = 0;
	key = IORD_32DIRECT(KEY_INPUT_BASE,0);
	//alt_printf("key = %d", key);
	while(key == 7)
  8022dc:	e0bfff17 	ldw	r2,-4(fp)
  8022e0:	108001e0 	cmpeqi	r2,r2,7
  8022e4:	103ff91e 	bne	r2,zero,8022cc <__alt_data_end+0xff8022cc>
		key = IORD_32DIRECT(KEY_INPUT_BASE,0);


}
  8022e8:	0001883a 	nop
  8022ec:	e037883a 	mov	sp,fp
  8022f0:	dfc00117 	ldw	ra,4(sp)
  8022f4:	df000017 	ldw	fp,0(sp)
  8022f8:	dec00204 	addi	sp,sp,8
  8022fc:	f800283a 	ret

00802300 <__divsi3>:
  802300:	20001b16 	blt	r4,zero,802370 <__divsi3+0x70>
  802304:	000f883a 	mov	r7,zero
  802308:	28001616 	blt	r5,zero,802364 <__divsi3+0x64>
  80230c:	200d883a 	mov	r6,r4
  802310:	29001a2e 	bgeu	r5,r4,80237c <__divsi3+0x7c>
  802314:	00800804 	movi	r2,32
  802318:	00c00044 	movi	r3,1
  80231c:	00000106 	br	802324 <__divsi3+0x24>
  802320:	10000d26 	beq	r2,zero,802358 <__divsi3+0x58>
  802324:	294b883a 	add	r5,r5,r5
  802328:	10bfffc4 	addi	r2,r2,-1
  80232c:	18c7883a 	add	r3,r3,r3
  802330:	293ffb36 	bltu	r5,r4,802320 <__alt_data_end+0xff802320>
  802334:	0005883a 	mov	r2,zero
  802338:	18000726 	beq	r3,zero,802358 <__divsi3+0x58>
  80233c:	0005883a 	mov	r2,zero
  802340:	31400236 	bltu	r6,r5,80234c <__divsi3+0x4c>
  802344:	314dc83a 	sub	r6,r6,r5
  802348:	10c4b03a 	or	r2,r2,r3
  80234c:	1806d07a 	srli	r3,r3,1
  802350:	280ad07a 	srli	r5,r5,1
  802354:	183ffa1e 	bne	r3,zero,802340 <__alt_data_end+0xff802340>
  802358:	38000126 	beq	r7,zero,802360 <__divsi3+0x60>
  80235c:	0085c83a 	sub	r2,zero,r2
  802360:	f800283a 	ret
  802364:	014bc83a 	sub	r5,zero,r5
  802368:	39c0005c 	xori	r7,r7,1
  80236c:	003fe706 	br	80230c <__alt_data_end+0xff80230c>
  802370:	0109c83a 	sub	r4,zero,r4
  802374:	01c00044 	movi	r7,1
  802378:	003fe306 	br	802308 <__alt_data_end+0xff802308>
  80237c:	00c00044 	movi	r3,1
  802380:	003fee06 	br	80233c <__alt_data_end+0xff80233c>

00802384 <__modsi3>:
  802384:	20001716 	blt	r4,zero,8023e4 <__modsi3+0x60>
  802388:	000f883a 	mov	r7,zero
  80238c:	2005883a 	mov	r2,r4
  802390:	28001216 	blt	r5,zero,8023dc <__modsi3+0x58>
  802394:	2900162e 	bgeu	r5,r4,8023f0 <__modsi3+0x6c>
  802398:	01800804 	movi	r6,32
  80239c:	00c00044 	movi	r3,1
  8023a0:	00000106 	br	8023a8 <__modsi3+0x24>
  8023a4:	30000a26 	beq	r6,zero,8023d0 <__modsi3+0x4c>
  8023a8:	294b883a 	add	r5,r5,r5
  8023ac:	31bfffc4 	addi	r6,r6,-1
  8023b0:	18c7883a 	add	r3,r3,r3
  8023b4:	293ffb36 	bltu	r5,r4,8023a4 <__alt_data_end+0xff8023a4>
  8023b8:	18000526 	beq	r3,zero,8023d0 <__modsi3+0x4c>
  8023bc:	1806d07a 	srli	r3,r3,1
  8023c0:	11400136 	bltu	r2,r5,8023c8 <__modsi3+0x44>
  8023c4:	1145c83a 	sub	r2,r2,r5
  8023c8:	280ad07a 	srli	r5,r5,1
  8023cc:	183ffb1e 	bne	r3,zero,8023bc <__alt_data_end+0xff8023bc>
  8023d0:	38000126 	beq	r7,zero,8023d8 <__modsi3+0x54>
  8023d4:	0085c83a 	sub	r2,zero,r2
  8023d8:	f800283a 	ret
  8023dc:	014bc83a 	sub	r5,zero,r5
  8023e0:	003fec06 	br	802394 <__alt_data_end+0xff802394>
  8023e4:	0109c83a 	sub	r4,zero,r4
  8023e8:	01c00044 	movi	r7,1
  8023ec:	003fe706 	br	80238c <__alt_data_end+0xff80238c>
  8023f0:	00c00044 	movi	r3,1
  8023f4:	003ff106 	br	8023bc <__alt_data_end+0xff8023bc>

008023f8 <__udivsi3>:
  8023f8:	200d883a 	mov	r6,r4
  8023fc:	2900152e 	bgeu	r5,r4,802454 <__udivsi3+0x5c>
  802400:	28001416 	blt	r5,zero,802454 <__udivsi3+0x5c>
  802404:	00800804 	movi	r2,32
  802408:	00c00044 	movi	r3,1
  80240c:	00000206 	br	802418 <__udivsi3+0x20>
  802410:	10000e26 	beq	r2,zero,80244c <__udivsi3+0x54>
  802414:	28000516 	blt	r5,zero,80242c <__udivsi3+0x34>
  802418:	294b883a 	add	r5,r5,r5
  80241c:	10bfffc4 	addi	r2,r2,-1
  802420:	18c7883a 	add	r3,r3,r3
  802424:	293ffa36 	bltu	r5,r4,802410 <__alt_data_end+0xff802410>
  802428:	18000826 	beq	r3,zero,80244c <__udivsi3+0x54>
  80242c:	0005883a 	mov	r2,zero
  802430:	31400236 	bltu	r6,r5,80243c <__udivsi3+0x44>
  802434:	314dc83a 	sub	r6,r6,r5
  802438:	10c4b03a 	or	r2,r2,r3
  80243c:	1806d07a 	srli	r3,r3,1
  802440:	280ad07a 	srli	r5,r5,1
  802444:	183ffa1e 	bne	r3,zero,802430 <__alt_data_end+0xff802430>
  802448:	f800283a 	ret
  80244c:	0005883a 	mov	r2,zero
  802450:	f800283a 	ret
  802454:	00c00044 	movi	r3,1
  802458:	003ff406 	br	80242c <__alt_data_end+0xff80242c>

0080245c <__umodsi3>:
  80245c:	2005883a 	mov	r2,r4
  802460:	2900122e 	bgeu	r5,r4,8024ac <__umodsi3+0x50>
  802464:	28001116 	blt	r5,zero,8024ac <__umodsi3+0x50>
  802468:	01800804 	movi	r6,32
  80246c:	00c00044 	movi	r3,1
  802470:	00000206 	br	80247c <__umodsi3+0x20>
  802474:	30000c26 	beq	r6,zero,8024a8 <__umodsi3+0x4c>
  802478:	28000516 	blt	r5,zero,802490 <__umodsi3+0x34>
  80247c:	294b883a 	add	r5,r5,r5
  802480:	31bfffc4 	addi	r6,r6,-1
  802484:	18c7883a 	add	r3,r3,r3
  802488:	293ffa36 	bltu	r5,r4,802474 <__alt_data_end+0xff802474>
  80248c:	18000626 	beq	r3,zero,8024a8 <__umodsi3+0x4c>
  802490:	1806d07a 	srli	r3,r3,1
  802494:	11400136 	bltu	r2,r5,80249c <__umodsi3+0x40>
  802498:	1145c83a 	sub	r2,r2,r5
  80249c:	280ad07a 	srli	r5,r5,1
  8024a0:	183ffb1e 	bne	r3,zero,802490 <__alt_data_end+0xff802490>
  8024a4:	f800283a 	ret
  8024a8:	f800283a 	ret
  8024ac:	00c00044 	movi	r3,1
  8024b0:	003ff706 	br	802490 <__alt_data_end+0xff802490>

008024b4 <__mulsi3>:
  8024b4:	0005883a 	mov	r2,zero
  8024b8:	20000726 	beq	r4,zero,8024d8 <__mulsi3+0x24>
  8024bc:	20c0004c 	andi	r3,r4,1
  8024c0:	2008d07a 	srli	r4,r4,1
  8024c4:	18000126 	beq	r3,zero,8024cc <__mulsi3+0x18>
  8024c8:	1145883a 	add	r2,r2,r5
  8024cc:	294b883a 	add	r5,r5,r5
  8024d0:	203ffa1e 	bne	r4,zero,8024bc <__alt_data_end+0xff8024bc>
  8024d4:	f800283a 	ret
  8024d8:	f800283a 	ret

008024dc <__fixsfsi>:
  8024dc:	200ad5fa 	srli	r5,r4,23
  8024e0:	00c02034 	movhi	r3,128
  8024e4:	18ffffc4 	addi	r3,r3,-1
  8024e8:	29403fcc 	andi	r5,r5,255
  8024ec:	00801f84 	movi	r2,126
  8024f0:	1906703a 	and	r3,r3,r4
  8024f4:	2008d7fa 	srli	r4,r4,31
  8024f8:	11400e0e 	bge	r2,r5,802534 <__fixsfsi+0x58>
  8024fc:	00802744 	movi	r2,157
  802500:	11400816 	blt	r2,r5,802524 <__fixsfsi+0x48>
  802504:	00802544 	movi	r2,149
  802508:	18c02034 	orhi	r3,r3,128
  80250c:	11400b0e 	bge	r2,r5,80253c <__fixsfsi+0x60>
  802510:	28bfda84 	addi	r2,r5,-150
  802514:	1884983a 	sll	r2,r3,r2
  802518:	20000726 	beq	r4,zero,802538 <__fixsfsi+0x5c>
  80251c:	0085c83a 	sub	r2,zero,r2
  802520:	f800283a 	ret
  802524:	00a00034 	movhi	r2,32768
  802528:	10bfffc4 	addi	r2,r2,-1
  80252c:	2085883a 	add	r2,r4,r2
  802530:	f800283a 	ret
  802534:	0005883a 	mov	r2,zero
  802538:	f800283a 	ret
  80253c:	00802584 	movi	r2,150
  802540:	1145c83a 	sub	r2,r2,r5
  802544:	1884d83a 	srl	r2,r3,r2
  802548:	003ff306 	br	802518 <__alt_data_end+0xff802518>

0080254c <memcpy>:
  80254c:	2005883a 	mov	r2,r4
  802550:	2007883a 	mov	r3,r4
  802554:	218d883a 	add	r6,r4,r6
  802558:	19800526 	beq	r3,r6,802570 <memcpy+0x24>
  80255c:	29000003 	ldbu	r4,0(r5)
  802560:	18c00044 	addi	r3,r3,1
  802564:	29400044 	addi	r5,r5,1
  802568:	193fffc5 	stb	r4,-1(r3)
  80256c:	003ffa06 	br	802558 <__alt_data_end+0xff802558>
  802570:	f800283a 	ret

00802574 <memset>:
  802574:	2005883a 	mov	r2,r4
  802578:	2007883a 	mov	r3,r4
  80257c:	218d883a 	add	r6,r4,r6
  802580:	19800326 	beq	r3,r6,802590 <memset+0x1c>
  802584:	19400005 	stb	r5,0(r3)
  802588:	18c00044 	addi	r3,r3,1
  80258c:	003ffc06 	br	802580 <__alt_data_end+0xff802580>
  802590:	f800283a 	ret

00802594 <strlen>:
  802594:	2005883a 	mov	r2,r4
  802598:	10c00007 	ldb	r3,0(r2)
  80259c:	18000226 	beq	r3,zero,8025a8 <strlen+0x14>
  8025a0:	10800044 	addi	r2,r2,1
  8025a4:	003ffc06 	br	802598 <__alt_data_end+0xff802598>
  8025a8:	1105c83a 	sub	r2,r2,r4
  8025ac:	f800283a 	ret

008025b0 <alt_load_section>:
 */

static void ALT_INLINE alt_load_section (alt_u32* from, 
                                         alt_u32* to, 
                                         alt_u32* end)
{
  8025b0:	defffc04 	addi	sp,sp,-16
  8025b4:	df000315 	stw	fp,12(sp)
  8025b8:	df000304 	addi	fp,sp,12
  8025bc:	e13ffd15 	stw	r4,-12(fp)
  8025c0:	e17ffe15 	stw	r5,-8(fp)
  8025c4:	e1bfff15 	stw	r6,-4(fp)
  if (to != from)
  8025c8:	e0fffe17 	ldw	r3,-8(fp)
  8025cc:	e0bffd17 	ldw	r2,-12(fp)
  8025d0:	18800c26 	beq	r3,r2,802604 <alt_load_section+0x54>
  {
    while( to != end )
  8025d4:	00000806 	br	8025f8 <alt_load_section+0x48>
    {
      *to++ = *from++;
  8025d8:	e0bffe17 	ldw	r2,-8(fp)
  8025dc:	10c00104 	addi	r3,r2,4
  8025e0:	e0fffe15 	stw	r3,-8(fp)
  8025e4:	e0fffd17 	ldw	r3,-12(fp)
  8025e8:	19000104 	addi	r4,r3,4
  8025ec:	e13ffd15 	stw	r4,-12(fp)
  8025f0:	18c00017 	ldw	r3,0(r3)
  8025f4:	10c00015 	stw	r3,0(r2)
                                         alt_u32* to, 
                                         alt_u32* end)
{
  if (to != from)
  {
    while( to != end )
  8025f8:	e0fffe17 	ldw	r3,-8(fp)
  8025fc:	e0bfff17 	ldw	r2,-4(fp)
  802600:	18bff51e 	bne	r3,r2,8025d8 <__alt_data_end+0xff8025d8>
    {
      *to++ = *from++;
    }
  }
}
  802604:	0001883a 	nop
  802608:	e037883a 	mov	sp,fp
  80260c:	df000017 	ldw	fp,0(sp)
  802610:	dec00104 	addi	sp,sp,4
  802614:	f800283a 	ret

00802618 <alt_load>:
 * there is no bootloader, so this application is responsible for loading to
 * RAM any sections that are required.
 */  

void alt_load (void)
{
  802618:	defffe04 	addi	sp,sp,-8
  80261c:	dfc00115 	stw	ra,4(sp)
  802620:	df000015 	stw	fp,0(sp)
  802624:	d839883a 	mov	fp,sp
  /* 
   * Copy the .rwdata section. 
   */

  alt_load_section (&__flash_rwdata_start, 
  802628:	01802034 	movhi	r6,128
  80262c:	31921f04 	addi	r6,r6,18556
  802630:	01402034 	movhi	r5,128
  802634:	29515804 	addi	r5,r5,17760
  802638:	01002034 	movhi	r4,128
  80263c:	21121f04 	addi	r4,r4,18556
  802640:	08025b00 	call	8025b0 <alt_load_section>

  /*
   * Copy the exception handler.
   */

  alt_load_section (&__flash_exceptions_start, 
  802644:	01802034 	movhi	r6,128
  802648:	31808c04 	addi	r6,r6,560
  80264c:	01402034 	movhi	r5,128
  802650:	29400804 	addi	r5,r5,32
  802654:	01002034 	movhi	r4,128
  802658:	21000804 	addi	r4,r4,32
  80265c:	08025b00 	call	8025b0 <alt_load_section>

  /*
   * Copy the .rodata section.
   */

  alt_load_section (&__flash_rodata_start, 
  802660:	01802034 	movhi	r6,128
  802664:	31915804 	addi	r6,r6,17760
  802668:	01402034 	movhi	r5,128
  80266c:	29502604 	addi	r5,r5,16536
  802670:	01002034 	movhi	r4,128
  802674:	21102604 	addi	r4,r4,16536
  802678:	08025b00 	call	8025b0 <alt_load_section>
  
  /*
   * Now ensure that the caches are in synch.
   */
  
  alt_dcache_flush_all();
  80267c:	08032940 	call	803294 <alt_dcache_flush_all>
  alt_icache_flush_all();
  802680:	08034640 	call	803464 <alt_icache_flush_all>
}
  802684:	0001883a 	nop
  802688:	e037883a 	mov	sp,fp
  80268c:	dfc00117 	ldw	ra,4(sp)
  802690:	df000017 	ldw	fp,0(sp)
  802694:	dec00204 	addi	sp,sp,8
  802698:	f800283a 	ret

0080269c <alt_main>:
 * devices/filesystems/components in the system; and call the entry point for
 * the users application, i.e. main().
 */

void alt_main (void)
{
  80269c:	defffd04 	addi	sp,sp,-12
  8026a0:	dfc00215 	stw	ra,8(sp)
  8026a4:	df000115 	stw	fp,4(sp)
  8026a8:	df000104 	addi	fp,sp,4
#endif

  /* ALT LOG - please see HAL/sys/alt_log_printf.h for details */
  ALT_LOG_PRINT_BOOT("[alt_main.c] Entering alt_main, calling alt_irq_init.\r\n");
  /* Initialize the interrupt controller. */
  alt_irq_init (NULL);
  8026ac:	0009883a 	mov	r4,zero
  8026b0:	08027400 	call	802740 <alt_irq_init>

  /* Initialize the operating system */
  ALT_LOG_PRINT_BOOT("[alt_main.c] Done alt_irq_init, calling alt_os_init.\r\n");
  ALT_OS_INIT();
  8026b4:	0001883a 	nop
  ALT_LOG_PRINT_BOOT("[alt_main.c] Done OS Init, calling alt_sem_create.\r\n");
  ALT_SEM_CREATE (&alt_fd_list_lock, 1);

  /* Initialize the device drivers/software components. */
  ALT_LOG_PRINT_BOOT("[alt_main.c] Calling alt_sys_init.\r\n");
  alt_sys_init();
  8026b8:	08027780 	call	802778 <alt_sys_init>
   * devices be present (not equal to /dev/null) and if direct drivers
   * aren't being used.
   */

    ALT_LOG_PRINT_BOOT("[alt_main.c] Redirecting IO.\r\n");
    alt_io_redirect(ALT_STDOUT, ALT_STDIN, ALT_STDERR);
  8026bc:	01802034 	movhi	r6,128
  8026c0:	31914204 	addi	r6,r6,17672
  8026c4:	01402034 	movhi	r5,128
  8026c8:	29514204 	addi	r5,r5,17672
  8026cc:	01002034 	movhi	r4,128
  8026d0:	21114204 	addi	r4,r4,17672
  8026d4:	08038380 	call	803838 <alt_io_redirect>
  ALT_LOG_PRINT_BOOT("[alt_main.c] Calling main.\r\n");

#ifdef ALT_NO_EXIT
  main (alt_argc, alt_argv, alt_envp);
#else
  result = main (alt_argc, alt_argv, alt_envp);
  8026d8:	d0a0d517 	ldw	r2,-31916(gp)
  8026dc:	d0e0d617 	ldw	r3,-31912(gp)
  8026e0:	d120d717 	ldw	r4,-31908(gp)
  8026e4:	200d883a 	mov	r6,r4
  8026e8:	180b883a 	mov	r5,r3
  8026ec:	1009883a 	mov	r4,r2
  8026f0:	080026c0 	call	80026c <main>
  8026f4:	e0bfff15 	stw	r2,-4(fp)
  close(STDOUT_FILENO);
  8026f8:	01000044 	movi	r4,1
  8026fc:	08031bc0 	call	8031bc <close>
  exit (result);
  802700:	e13fff17 	ldw	r4,-4(fp)
  802704:	0803e840 	call	803e84 <exit>

00802708 <alt_dev_reg>:
 */

extern int alt_fs_reg  (alt_dev* dev); 

static ALT_INLINE int alt_dev_reg (alt_dev* dev)
{
  802708:	defffd04 	addi	sp,sp,-12
  80270c:	dfc00215 	stw	ra,8(sp)
  802710:	df000115 	stw	fp,4(sp)
  802714:	df000104 	addi	fp,sp,4
  802718:	e13fff15 	stw	r4,-4(fp)
  extern alt_llist alt_dev_list;

  return alt_dev_llist_insert ((alt_dev_llist*) dev, &alt_dev_list);
  80271c:	01402034 	movhi	r5,128
  802720:	29521804 	addi	r5,r5,18528
  802724:	e13fff17 	ldw	r4,-4(fp)
  802728:	08033300 	call	803330 <alt_dev_llist_insert>
}
  80272c:	e037883a 	mov	sp,fp
  802730:	dfc00117 	ldw	ra,4(sp)
  802734:	df000017 	ldw	fp,0(sp)
  802738:	dec00204 	addi	sp,sp,8
  80273c:	f800283a 	ret

00802740 <alt_irq_init>:
 * The "base" parameter is ignored and only
 * present for backwards-compatibility.
 */

void alt_irq_init ( const void* base )
{
  802740:	defffd04 	addi	sp,sp,-12
  802744:	dfc00215 	stw	ra,8(sp)
  802748:	df000115 	stw	fp,4(sp)
  80274c:	df000104 	addi	fp,sp,4
  802750:	e13fff15 	stw	r4,-4(fp)
    ALTERA_NIOS2_GEN2_IRQ_INIT ( NIOS2_CPU, Nios2_CPU);
  802754:	0803bdc0 	call	803bdc <altera_nios2_gen2_irq_init>
 * alt_irq_cpu_enable_interrupts() enables the CPU to start taking interrupts.
 */
static ALT_INLINE void ALT_ALWAYS_INLINE 
       alt_irq_cpu_enable_interrupts (void)
{
    NIOS2_WRITE_STATUS(NIOS2_STATUS_PIE_MSK
  802758:	00800044 	movi	r2,1
  80275c:	1001703a 	wrctl	status,r2
    alt_irq_cpu_enable_interrupts();
}
  802760:	0001883a 	nop
  802764:	e037883a 	mov	sp,fp
  802768:	dfc00117 	ldw	ra,4(sp)
  80276c:	df000017 	ldw	fp,0(sp)
  802770:	dec00204 	addi	sp,sp,8
  802774:	f800283a 	ret

00802778 <alt_sys_init>:
 * Initialize the non-interrupt controller devices.
 * Called after alt_irq_init().
 */

void alt_sys_init( void )
{
  802778:	defffe04 	addi	sp,sp,-8
  80277c:	dfc00115 	stw	ra,4(sp)
  802780:	df000015 	stw	fp,0(sp)
  802784:	d839883a 	mov	fp,sp
    ALTERA_AVALON_JTAG_UART_INIT ( JTAG_UART_0, jtag_uart_0);
  802788:	01002034 	movhi	r4,128
  80278c:	21115804 	addi	r4,r4,17760
  802790:	08027080 	call	802708 <alt_dev_reg>
    ALTERA_AVALON_SPI_INIT ( ACCELEROMETER_SPI, accelerometer_spi);
  802794:	0001883a 	nop
    ALTERA_MODULAR_ADC_INIT ( MODULAR_ADC_0, modular_adc_0);
  802798:	01bfffc4 	movi	r6,-1
  80279c:	017fffc4 	movi	r5,-1
  8027a0:	01002034 	movhi	r4,128
  8027a4:	21116304 	addi	r4,r4,17804
  8027a8:	0802d540 	call	802d54 <altera_modular_adc_init>
}
  8027ac:	0001883a 	nop
  8027b0:	e037883a 	mov	sp,fp
  8027b4:	dfc00117 	ldw	ra,4(sp)
  8027b8:	df000017 	ldw	fp,0(sp)
  8027bc:	dec00204 	addi	sp,sp,8
  8027c0:	f800283a 	ret

008027c4 <altera_avalon_jtag_uart_read_fd>:
 *
 */

int 
altera_avalon_jtag_uart_read_fd(alt_fd* fd, char* buffer, int space)
{
  8027c4:	defffa04 	addi	sp,sp,-24
  8027c8:	dfc00515 	stw	ra,20(sp)
  8027cc:	df000415 	stw	fp,16(sp)
  8027d0:	df000404 	addi	fp,sp,16
  8027d4:	e13ffd15 	stw	r4,-12(fp)
  8027d8:	e17ffe15 	stw	r5,-8(fp)
  8027dc:	e1bfff15 	stw	r6,-4(fp)
    altera_avalon_jtag_uart_dev* dev = (altera_avalon_jtag_uart_dev*) fd->dev; 
  8027e0:	e0bffd17 	ldw	r2,-12(fp)
  8027e4:	10800017 	ldw	r2,0(r2)
  8027e8:	e0bffc15 	stw	r2,-16(fp)

    return altera_avalon_jtag_uart_read(&dev->state, buffer, space,
  8027ec:	e0bffc17 	ldw	r2,-16(fp)
  8027f0:	10c00a04 	addi	r3,r2,40
  8027f4:	e0bffd17 	ldw	r2,-12(fp)
  8027f8:	10800217 	ldw	r2,8(r2)
  8027fc:	100f883a 	mov	r7,r2
  802800:	e1bfff17 	ldw	r6,-4(fp)
  802804:	e17ffe17 	ldw	r5,-8(fp)
  802808:	1809883a 	mov	r4,r3
  80280c:	08028840 	call	802884 <altera_avalon_jtag_uart_read>
      fd->fd_flags);
}
  802810:	e037883a 	mov	sp,fp
  802814:	dfc00117 	ldw	ra,4(sp)
  802818:	df000017 	ldw	fp,0(sp)
  80281c:	dec00204 	addi	sp,sp,8
  802820:	f800283a 	ret

00802824 <altera_avalon_jtag_uart_write_fd>:

int 
altera_avalon_jtag_uart_write_fd(alt_fd* fd, const char* buffer, int space)
{
  802824:	defffa04 	addi	sp,sp,-24
  802828:	dfc00515 	stw	ra,20(sp)
  80282c:	df000415 	stw	fp,16(sp)
  802830:	df000404 	addi	fp,sp,16
  802834:	e13ffd15 	stw	r4,-12(fp)
  802838:	e17ffe15 	stw	r5,-8(fp)
  80283c:	e1bfff15 	stw	r6,-4(fp)
    altera_avalon_jtag_uart_dev* dev = (altera_avalon_jtag_uart_dev*) fd->dev; 
  802840:	e0bffd17 	ldw	r2,-12(fp)
  802844:	10800017 	ldw	r2,0(r2)
  802848:	e0bffc15 	stw	r2,-16(fp)

    return altera_avalon_jtag_uart_write(&dev->state, buffer, space,
  80284c:	e0bffc17 	ldw	r2,-16(fp)
  802850:	10c00a04 	addi	r3,r2,40
  802854:	e0bffd17 	ldw	r2,-12(fp)
  802858:	10800217 	ldw	r2,8(r2)
  80285c:	100f883a 	mov	r7,r2
  802860:	e1bfff17 	ldw	r6,-4(fp)
  802864:	e17ffe17 	ldw	r5,-8(fp)
  802868:	1809883a 	mov	r4,r3
  80286c:	08029700 	call	802970 <altera_avalon_jtag_uart_write>
      fd->fd_flags);
}
  802870:	e037883a 	mov	sp,fp
  802874:	dfc00117 	ldw	ra,4(sp)
  802878:	df000017 	ldw	fp,0(sp)
  80287c:	dec00204 	addi	sp,sp,8
  802880:	f800283a 	ret

00802884 <altera_avalon_jtag_uart_read>:
 */

int 
altera_avalon_jtag_uart_read(altera_avalon_jtag_uart_state* sp, 
  char* buffer, int space, int flags)
{
  802884:	defff704 	addi	sp,sp,-36
  802888:	df000815 	stw	fp,32(sp)
  80288c:	df000804 	addi	fp,sp,32
  802890:	e13ffc15 	stw	r4,-16(fp)
  802894:	e17ffd15 	stw	r5,-12(fp)
  802898:	e1bffe15 	stw	r6,-8(fp)
  80289c:	e1ffff15 	stw	r7,-4(fp)
  unsigned int base = sp->base;
  8028a0:	e0bffc17 	ldw	r2,-16(fp)
  8028a4:	10800017 	ldw	r2,0(r2)
  8028a8:	e0bff915 	stw	r2,-28(fp)

  char * ptr = buffer;
  8028ac:	e0bffd17 	ldw	r2,-12(fp)
  8028b0:	e0bff815 	stw	r2,-32(fp)
  char * end = buffer + space;
  8028b4:	e0bffe17 	ldw	r2,-8(fp)
  8028b8:	e0fffd17 	ldw	r3,-12(fp)
  8028bc:	1885883a 	add	r2,r3,r2
  8028c0:	e0bffa15 	stw	r2,-24(fp)

  while (ptr < end)
  8028c4:	00001206 	br	802910 <altera_avalon_jtag_uart_read+0x8c>
  {
    unsigned int data = IORD_ALTERA_AVALON_JTAG_UART_DATA(base);
  8028c8:	e0bff917 	ldw	r2,-28(fp)
  8028cc:	10800037 	ldwio	r2,0(r2)
  8028d0:	e0bffb15 	stw	r2,-20(fp)

    if (data & ALTERA_AVALON_JTAG_UART_DATA_RVALID_MSK)
  8028d4:	e0bffb17 	ldw	r2,-20(fp)
  8028d8:	10a0000c 	andi	r2,r2,32768
  8028dc:	10000626 	beq	r2,zero,8028f8 <altera_avalon_jtag_uart_read+0x74>
      *ptr++ = (data & ALTERA_AVALON_JTAG_UART_DATA_DATA_MSK) >> ALTERA_AVALON_JTAG_UART_DATA_DATA_OFST;
  8028e0:	e0bff817 	ldw	r2,-32(fp)
  8028e4:	10c00044 	addi	r3,r2,1
  8028e8:	e0fff815 	stw	r3,-32(fp)
  8028ec:	e0fffb17 	ldw	r3,-20(fp)
  8028f0:	10c00005 	stb	r3,0(r2)
  8028f4:	00000606 	br	802910 <altera_avalon_jtag_uart_read+0x8c>
    else if (ptr != buffer)
  8028f8:	e0fff817 	ldw	r3,-32(fp)
  8028fc:	e0bffd17 	ldw	r2,-12(fp)
  802900:	1880071e 	bne	r3,r2,802920 <altera_avalon_jtag_uart_read+0x9c>
      break;
    else if(flags & O_NONBLOCK)
  802904:	e0bfff17 	ldw	r2,-4(fp)
  802908:	1090000c 	andi	r2,r2,16384
  80290c:	1000061e 	bne	r2,zero,802928 <altera_avalon_jtag_uart_read+0xa4>
  unsigned int base = sp->base;

  char * ptr = buffer;
  char * end = buffer + space;

  while (ptr < end)
  802910:	e0fff817 	ldw	r3,-32(fp)
  802914:	e0bffa17 	ldw	r2,-24(fp)
  802918:	18bfeb36 	bltu	r3,r2,8028c8 <__alt_data_end+0xff8028c8>
  80291c:	00000306 	br	80292c <altera_avalon_jtag_uart_read+0xa8>
    unsigned int data = IORD_ALTERA_AVALON_JTAG_UART_DATA(base);

    if (data & ALTERA_AVALON_JTAG_UART_DATA_RVALID_MSK)
      *ptr++ = (data & ALTERA_AVALON_JTAG_UART_DATA_DATA_MSK) >> ALTERA_AVALON_JTAG_UART_DATA_DATA_OFST;
    else if (ptr != buffer)
      break;
  802920:	0001883a 	nop
  802924:	00000106 	br	80292c <altera_avalon_jtag_uart_read+0xa8>
    else if(flags & O_NONBLOCK)
      break;   
  802928:	0001883a 	nop
    
  }

  if (ptr != buffer)
  80292c:	e0fff817 	ldw	r3,-32(fp)
  802930:	e0bffd17 	ldw	r2,-12(fp)
  802934:	18800426 	beq	r3,r2,802948 <altera_avalon_jtag_uart_read+0xc4>
    return ptr - buffer;
  802938:	e0fff817 	ldw	r3,-32(fp)
  80293c:	e0bffd17 	ldw	r2,-12(fp)
  802940:	1885c83a 	sub	r2,r3,r2
  802944:	00000606 	br	802960 <altera_avalon_jtag_uart_read+0xdc>
  else if (flags & O_NONBLOCK)
  802948:	e0bfff17 	ldw	r2,-4(fp)
  80294c:	1090000c 	andi	r2,r2,16384
  802950:	10000226 	beq	r2,zero,80295c <altera_avalon_jtag_uart_read+0xd8>
    return -EWOULDBLOCK;
  802954:	00bffd44 	movi	r2,-11
  802958:	00000106 	br	802960 <altera_avalon_jtag_uart_read+0xdc>
  else
    return -EIO;
  80295c:	00bffec4 	movi	r2,-5
}
  802960:	e037883a 	mov	sp,fp
  802964:	df000017 	ldw	fp,0(sp)
  802968:	dec00104 	addi	sp,sp,4
  80296c:	f800283a 	ret

00802970 <altera_avalon_jtag_uart_write>:
 * one FIFOs worth of data.  But you said you didn't want to use interrupts :-)
 */

int altera_avalon_jtag_uart_write(altera_avalon_jtag_uart_state* sp, 
  const char * ptr, int count, int flags)
{
  802970:	defff904 	addi	sp,sp,-28
  802974:	df000615 	stw	fp,24(sp)
  802978:	df000604 	addi	fp,sp,24
  80297c:	e13ffc15 	stw	r4,-16(fp)
  802980:	e17ffd15 	stw	r5,-12(fp)
  802984:	e1bffe15 	stw	r6,-8(fp)
  802988:	e1ffff15 	stw	r7,-4(fp)
  unsigned int base = sp->base;
  80298c:	e0bffc17 	ldw	r2,-16(fp)
  802990:	10800017 	ldw	r2,0(r2)
  802994:	e0bffa15 	stw	r2,-24(fp)

  const char * end = ptr + count;
  802998:	e0bffe17 	ldw	r2,-8(fp)
  80299c:	e0fffd17 	ldw	r3,-12(fp)
  8029a0:	1885883a 	add	r2,r3,r2
  8029a4:	e0bffb15 	stw	r2,-20(fp)

  while (ptr < end)
  8029a8:	00000e06 	br	8029e4 <altera_avalon_jtag_uart_write+0x74>
    if ((IORD_ALTERA_AVALON_JTAG_UART_CONTROL(base) & ALTERA_AVALON_JTAG_UART_CONTROL_WSPACE_MSK) != 0)
  8029ac:	e0bffa17 	ldw	r2,-24(fp)
  8029b0:	10800104 	addi	r2,r2,4
  8029b4:	10800037 	ldwio	r2,0(r2)
  8029b8:	10bfffec 	andhi	r2,r2,65535
  8029bc:	10000926 	beq	r2,zero,8029e4 <altera_avalon_jtag_uart_write+0x74>
      IOWR_ALTERA_AVALON_JTAG_UART_DATA(base, *ptr++);
  8029c0:	e0fffa17 	ldw	r3,-24(fp)
  8029c4:	e0bffd17 	ldw	r2,-12(fp)
  8029c8:	11000044 	addi	r4,r2,1
  8029cc:	e13ffd15 	stw	r4,-12(fp)
  8029d0:	10800003 	ldbu	r2,0(r2)
  8029d4:	10803fcc 	andi	r2,r2,255
  8029d8:	1080201c 	xori	r2,r2,128
  8029dc:	10bfe004 	addi	r2,r2,-128
  8029e0:	18800035 	stwio	r2,0(r3)
{
  unsigned int base = sp->base;

  const char * end = ptr + count;

  while (ptr < end)
  8029e4:	e0fffd17 	ldw	r3,-12(fp)
  8029e8:	e0bffb17 	ldw	r2,-20(fp)
  8029ec:	18bfef36 	bltu	r3,r2,8029ac <__alt_data_end+0xff8029ac>
    if ((IORD_ALTERA_AVALON_JTAG_UART_CONTROL(base) & ALTERA_AVALON_JTAG_UART_CONTROL_WSPACE_MSK) != 0)
      IOWR_ALTERA_AVALON_JTAG_UART_DATA(base, *ptr++);

  return count;
  8029f0:	e0bffe17 	ldw	r2,-8(fp)
}
  8029f4:	e037883a 	mov	sp,fp
  8029f8:	df000017 	ldw	fp,0(sp)
  8029fc:	dec00104 	addi	sp,sp,4
  802a00:	f800283a 	ret

00802a04 <alt_avalon_spi_command>:

int alt_avalon_spi_command(alt_u32 base, alt_u32 slave,
                           alt_u32 write_length, const alt_u8 * write_data,
                           alt_u32 read_length, alt_u8 * read_data,
                           alt_u32 flags)
{
  802a04:	defff404 	addi	sp,sp,-48
  802a08:	df000b15 	stw	fp,44(sp)
  802a0c:	df000b04 	addi	fp,sp,44
  802a10:	e13ffc15 	stw	r4,-16(fp)
  802a14:	e17ffd15 	stw	r5,-12(fp)
  802a18:	e1bffe15 	stw	r6,-8(fp)
  802a1c:	e1ffff15 	stw	r7,-4(fp)
  const alt_u8 * write_end = write_data + write_length;
  802a20:	e0ffff17 	ldw	r3,-4(fp)
  802a24:	e0bffe17 	ldw	r2,-8(fp)
  802a28:	1885883a 	add	r2,r3,r2
  802a2c:	e0bff815 	stw	r2,-32(fp)
  alt_u8 * read_end = read_data + read_length;
  802a30:	e0c00217 	ldw	r3,8(fp)
  802a34:	e0800117 	ldw	r2,4(fp)
  802a38:	1885883a 	add	r2,r3,r2
  802a3c:	e0bff915 	stw	r2,-28(fp)

  alt_u32 write_zeros = read_length;
  802a40:	e0800117 	ldw	r2,4(fp)
  802a44:	e0bff515 	stw	r2,-44(fp)
  alt_u32 read_ignore = write_length;
  802a48:	e0bffe17 	ldw	r2,-8(fp)
  802a4c:	e0bff615 	stw	r2,-40(fp)

  /* We must not send more than two bytes to the target before it has
   * returned any as otherwise it will overflow. */
  /* Unfortunately the hardware does not seem to work with credits > 1,
   * leave it at 1 for now. */
  alt_32 credits = 1;
  802a50:	00800044 	movi	r2,1
  802a54:	e0bff715 	stw	r2,-36(fp)
  /* Warning: this function is not currently safe if called in a multi-threaded
   * environment, something above must perform locking to make it safe if more
   * than one thread intends to use it.
   */

  IOWR_ALTERA_AVALON_SPI_SLAVE_SEL(base, 1 << slave);
  802a58:	e0bffc17 	ldw	r2,-16(fp)
  802a5c:	10800504 	addi	r2,r2,20
  802a60:	1009883a 	mov	r4,r2
  802a64:	00c00044 	movi	r3,1
  802a68:	e0bffd17 	ldw	r2,-12(fp)
  802a6c:	1884983a 	sll	r2,r3,r2
  802a70:	20800035 	stwio	r2,0(r4)
  
  /* Set the SSO bit (force chipselect) only if the toggle flag is not set */
  if ((flags & ALT_AVALON_SPI_COMMAND_TOGGLE_SS_N) == 0) {
  802a74:	e0800317 	ldw	r2,12(fp)
  802a78:	1080008c 	andi	r2,r2,2
  802a7c:	1000051e 	bne	r2,zero,802a94 <alt_avalon_spi_command+0x90>
    IOWR_ALTERA_AVALON_SPI_CONTROL(base, ALTERA_AVALON_SPI_CONTROL_SSO_MSK);
  802a80:	e0bffc17 	ldw	r2,-16(fp)
  802a84:	10800304 	addi	r2,r2,12
  802a88:	1007883a 	mov	r3,r2
  802a8c:	00810004 	movi	r2,1024
  802a90:	18800035 	stwio	r2,0(r3)
  /*
   * Discard any stale data present in the RXDATA register, in case
   * previous communication was interrupted and stale data was left
   * behind.
   */
  IORD_ALTERA_AVALON_SPI_RXDATA(base);
  802a94:	e0bffc17 	ldw	r2,-16(fp)
  802a98:	10800037 	ldwio	r2,0(r2)
  for ( ; ; )
  {
    
    do
    {
      status = IORD_ALTERA_AVALON_SPI_STATUS(base);
  802a9c:	e0bffc17 	ldw	r2,-16(fp)
  802aa0:	10800204 	addi	r2,r2,8
  802aa4:	10800037 	ldwio	r2,0(r2)
  802aa8:	e0bffa15 	stw	r2,-24(fp)
    }
    while (((status & ALTERA_AVALON_SPI_STATUS_TRDY_MSK) == 0 || credits == 0) &&
  802aac:	e0bffa17 	ldw	r2,-24(fp)
  802ab0:	1080100c 	andi	r2,r2,64
            (status & ALTERA_AVALON_SPI_STATUS_RRDY_MSK) == 0);
  802ab4:	10000226 	beq	r2,zero,802ac0 <alt_avalon_spi_command+0xbc>
    
    do
    {
      status = IORD_ALTERA_AVALON_SPI_STATUS(base);
    }
    while (((status & ALTERA_AVALON_SPI_STATUS_TRDY_MSK) == 0 || credits == 0) &&
  802ab8:	e0bff717 	ldw	r2,-36(fp)
  802abc:	1000031e 	bne	r2,zero,802acc <alt_avalon_spi_command+0xc8>
            (status & ALTERA_AVALON_SPI_STATUS_RRDY_MSK) == 0);
  802ac0:	e0bffa17 	ldw	r2,-24(fp)
  802ac4:	1080200c 	andi	r2,r2,128
    
    do
    {
      status = IORD_ALTERA_AVALON_SPI_STATUS(base);
    }
    while (((status & ALTERA_AVALON_SPI_STATUS_TRDY_MSK) == 0 || credits == 0) &&
  802ac8:	103ff426 	beq	r2,zero,802a9c <__alt_data_end+0xff802a9c>
            (status & ALTERA_AVALON_SPI_STATUS_RRDY_MSK) == 0);

    if ((status & ALTERA_AVALON_SPI_STATUS_TRDY_MSK) != 0 && credits > 0)
  802acc:	e0bffa17 	ldw	r2,-24(fp)
  802ad0:	1080100c 	andi	r2,r2,64
  802ad4:	10001e26 	beq	r2,zero,802b50 <alt_avalon_spi_command+0x14c>
  802ad8:	e0bff717 	ldw	r2,-36(fp)
  802adc:	00801c0e 	bge	zero,r2,802b50 <alt_avalon_spi_command+0x14c>
    {
      credits--;
  802ae0:	e0bff717 	ldw	r2,-36(fp)
  802ae4:	10bfffc4 	addi	r2,r2,-1
  802ae8:	e0bff715 	stw	r2,-36(fp)

      if (write_data < write_end)
  802aec:	e0ffff17 	ldw	r3,-4(fp)
  802af0:	e0bff817 	ldw	r2,-32(fp)
  802af4:	18800a2e 	bgeu	r3,r2,802b20 <alt_avalon_spi_command+0x11c>
        IOWR_ALTERA_AVALON_SPI_TXDATA(base, *write_data++);
  802af8:	e0bffc17 	ldw	r2,-16(fp)
  802afc:	10800104 	addi	r2,r2,4
  802b00:	1009883a 	mov	r4,r2
  802b04:	e0bfff17 	ldw	r2,-4(fp)
  802b08:	10c00044 	addi	r3,r2,1
  802b0c:	e0ffff15 	stw	r3,-4(fp)
  802b10:	10800003 	ldbu	r2,0(r2)
  802b14:	10803fcc 	andi	r2,r2,255
  802b18:	20800035 	stwio	r2,0(r4)
  802b1c:	00000c06 	br	802b50 <alt_avalon_spi_command+0x14c>
      else if (write_zeros > 0)
  802b20:	e0bff517 	ldw	r2,-44(fp)
  802b24:	10000826 	beq	r2,zero,802b48 <alt_avalon_spi_command+0x144>
      {
        write_zeros--;
  802b28:	e0bff517 	ldw	r2,-44(fp)
  802b2c:	10bfffc4 	addi	r2,r2,-1
  802b30:	e0bff515 	stw	r2,-44(fp)
        IOWR_ALTERA_AVALON_SPI_TXDATA(base, 0);
  802b34:	e0bffc17 	ldw	r2,-16(fp)
  802b38:	10800104 	addi	r2,r2,4
  802b3c:	0007883a 	mov	r3,zero
  802b40:	10c00035 	stwio	r3,0(r2)
  802b44:	00000206 	br	802b50 <alt_avalon_spi_command+0x14c>
      }
      else
        credits = -1024;
  802b48:	00bf0004 	movi	r2,-1024
  802b4c:	e0bff715 	stw	r2,-36(fp)
    };

    if ((status & ALTERA_AVALON_SPI_STATUS_RRDY_MSK) != 0)
  802b50:	e0bffa17 	ldw	r2,-24(fp)
  802b54:	1080200c 	andi	r2,r2,128
  802b58:	103fd026 	beq	r2,zero,802a9c <__alt_data_end+0xff802a9c>
    {
      alt_u32 rxdata = IORD_ALTERA_AVALON_SPI_RXDATA(base);
  802b5c:	e0bffc17 	ldw	r2,-16(fp)
  802b60:	10800037 	ldwio	r2,0(r2)
  802b64:	e0bffb15 	stw	r2,-20(fp)

      if (read_ignore > 0)
  802b68:	e0bff617 	ldw	r2,-40(fp)
  802b6c:	10000426 	beq	r2,zero,802b80 <alt_avalon_spi_command+0x17c>
        read_ignore--;
  802b70:	e0bff617 	ldw	r2,-40(fp)
  802b74:	10bfffc4 	addi	r2,r2,-1
  802b78:	e0bff615 	stw	r2,-40(fp)
  802b7c:	00000506 	br	802b94 <alt_avalon_spi_command+0x190>
      else
        *read_data++ = (alt_u8)rxdata;
  802b80:	e0800217 	ldw	r2,8(fp)
  802b84:	10c00044 	addi	r3,r2,1
  802b88:	e0c00215 	stw	r3,8(fp)
  802b8c:	e0fffb17 	ldw	r3,-20(fp)
  802b90:	10c00005 	stb	r3,0(r2)
      credits++;
  802b94:	e0bff717 	ldw	r2,-36(fp)
  802b98:	10800044 	addi	r2,r2,1
  802b9c:	e0bff715 	stw	r2,-36(fp)

      if (read_ignore == 0 && read_data == read_end)
  802ba0:	e0bff617 	ldw	r2,-40(fp)
  802ba4:	103fbd1e 	bne	r2,zero,802a9c <__alt_data_end+0xff802a9c>
  802ba8:	e0c00217 	ldw	r3,8(fp)
  802bac:	e0bff917 	ldw	r2,-28(fp)
  802bb0:	18bfba1e 	bne	r3,r2,802a9c <__alt_data_end+0xff802a9c>
  }

  /* Wait until the interface has finished transmitting */
  do
  {
    status = IORD_ALTERA_AVALON_SPI_STATUS(base);
  802bb4:	e0bffc17 	ldw	r2,-16(fp)
  802bb8:	10800204 	addi	r2,r2,8
  802bbc:	10800037 	ldwio	r2,0(r2)
  802bc0:	e0bffa15 	stw	r2,-24(fp)
  }
  while ((status & ALTERA_AVALON_SPI_STATUS_TMT_MSK) == 0);
  802bc4:	e0bffa17 	ldw	r2,-24(fp)
  802bc8:	1080080c 	andi	r2,r2,32
  802bcc:	103ff926 	beq	r2,zero,802bb4 <__alt_data_end+0xff802bb4>

  /* Clear SSO (release chipselect) unless the caller is going to
   * keep using this chip
   */
  if ((flags & ALT_AVALON_SPI_COMMAND_MERGE) == 0)
  802bd0:	e0800317 	ldw	r2,12(fp)
  802bd4:	1080004c 	andi	r2,r2,1
  802bd8:	1000041e 	bne	r2,zero,802bec <alt_avalon_spi_command+0x1e8>
    IOWR_ALTERA_AVALON_SPI_CONTROL(base, 0);
  802bdc:	e0bffc17 	ldw	r2,-16(fp)
  802be0:	10800304 	addi	r2,r2,12
  802be4:	0007883a 	mov	r3,zero
  802be8:	10c00035 	stwio	r3,0(r2)

  return read_length;
  802bec:	e0800117 	ldw	r2,4(fp)
}
  802bf0:	e037883a 	mov	sp,fp
  802bf4:	df000017 	ldw	fp,0(sp)
  802bf8:	dec00104 	addi	sp,sp,4
  802bfc:	f800283a 	ret

00802c00 <alt_adc_irq>:
 * alt_adc_irq()
 *
 * Interrupt handler for the altera modular adc.
 */
static void alt_adc_irq(void *context)
{
  802c00:	defff904 	addi	sp,sp,-28
  802c04:	dfc00615 	stw	ra,24(sp)
  802c08:	df000515 	stw	fp,20(sp)
  802c0c:	df000504 	addi	fp,sp,20
  802c10:	e13fff15 	stw	r4,-4(fp)
    alt_modular_adc_dev *dev = (alt_modular_adc_dev *) context;
  802c14:	e0bfff17 	ldw	r2,-4(fp)
  802c18:	e0bffb15 	stw	r2,-20(fp)
    alt_irq_context cpu_sr = 0;
  802c1c:	e03ffc15 	stw	zero,-16(fp)

	if(NULL != dev)
  802c20:	e0bffb17 	ldw	r2,-20(fp)
  802c24:	10001a26 	beq	r2,zero,802c90 <alt_adc_irq+0x90>
static ALT_INLINE alt_irq_context ALT_ALWAYS_INLINE 
       alt_irq_disable_all (void)
{
  alt_irq_context context;

  NIOS2_READ_STATUS (context);
  802c28:	0005303a 	rdctl	r2,status
  802c2c:	e0bffe15 	stw	r2,-8(fp)

  NIOS2_WRITE_STATUS (context & ~NIOS2_STATUS_PIE_MSK);
  802c30:	e0fffe17 	ldw	r3,-8(fp)
  802c34:	00bfff84 	movi	r2,-2
  802c38:	1884703a 	and	r2,r3,r2
  802c3c:	1001703a 	wrctl	status,r2
  
  return context;
  802c40:	e0bffe17 	ldw	r2,-8(fp)
	{
	    cpu_sr = alt_irq_disable_all();
  802c44:	e0bffc15 	stw	r2,-16(fp)
		* Other interrupts are explicitly disabled if callbacks
		* are registered because there is no guarantee that they are 
		* pre-emption-safe. This allows the driver to support 
		* interrupt pre-emption.
		*/
		if(dev->callback) 
  802c48:	e0bffb17 	ldw	r2,-20(fp)
  802c4c:	10800a17 	ldw	r2,40(r2)
  802c50:	10000626 	beq	r2,zero,802c6c <alt_adc_irq+0x6c>
		{
			dev->callback (dev->callback_context);
  802c54:	e0bffb17 	ldw	r2,-20(fp)
  802c58:	10800a17 	ldw	r2,40(r2)
  802c5c:	e0fffb17 	ldw	r3,-20(fp)
  802c60:	18c00b17 	ldw	r3,44(r3)
  802c64:	1809883a 	mov	r4,r3
  802c68:	103ee83a 	callr	r2
		}
    
		/* clear the IRQ status */
		adc_clear_interrupt_status(dev->sample_store_base);
  802c6c:	e0bffb17 	ldw	r2,-20(fp)
  802c70:	10800c17 	ldw	r2,48(r2)
  802c74:	1009883a 	mov	r4,r2
  802c78:	08030ac0 	call	8030ac <adc_clear_interrupt_status>
  802c7c:	e0bffc17 	ldw	r2,-16(fp)
  802c80:	e0bffd15 	stw	r2,-12(fp)
  status &= ~NIOS2_STATUS_PIE_MSK;
  status |= (context & NIOS2_STATUS_PIE_MSK);
  
  NIOS2_WRITE_STATUS (status);
#else
  NIOS2_WRITE_STATUS (context);
  802c84:	e0bffd17 	ldw	r2,-12(fp)
  802c88:	1001703a 	wrctl	status,r2
	    
		alt_irq_enable_all(cpu_sr);
	}
	
    return;
  802c8c:	0001883a 	nop
  802c90:	0001883a 	nop
}
  802c94:	e037883a 	mov	sp,fp
  802c98:	dfc00117 	ldw	ra,4(sp)
  802c9c:	df000017 	ldw	fp,0(sp)
  802ca0:	dec00204 	addi	sp,sp,8
  802ca4:	f800283a 	ret

00802ca8 <alt_adc_word_read>:
 * Returns:
 * 0 -> success
 * -EINVAL -> Invalid arguments
**/
int alt_adc_word_read (alt_u32 sample_store_base, alt_u32* dest_ptr, alt_u32 len)
{
  802ca8:	defff804 	addi	sp,sp,-32
  802cac:	df000715 	stw	fp,28(sp)
  802cb0:	df000704 	addi	fp,sp,28
  802cb4:	e13ffd15 	stw	r4,-12(fp)
  802cb8:	e17ffe15 	stw	r5,-8(fp)
  802cbc:	e1bfff15 	stw	r6,-4(fp)
    alt_u32 word = 0;
  802cc0:	e03ff915 	stw	zero,-28(fp)
    alt_u32 word_length = len;
  802cc4:	e0bfff17 	ldw	r2,-4(fp)
  802cc8:	e0bffb15 	stw	r2,-20(fp)
    alt_u32* dest_buf = dest_ptr;
  802ccc:	e0bffe17 	ldw	r2,-8(fp)
  802cd0:	e0bffa15 	stw	r2,-24(fp)
    alt_u32 base = sample_store_base;
  802cd4:	e0bffd17 	ldw	r2,-12(fp)
  802cd8:	e0bffc15 	stw	r2,-16(fp)
     
    /* return -EINVAL if invalid arguments passed into function */
    if(NULL == dest_buf)
  802cdc:	e0bffa17 	ldw	r2,-24(fp)
  802ce0:	1000021e 	bne	r2,zero,802cec <alt_adc_word_read+0x44>
    {
    	return -EINVAL;
  802ce4:	00bffa84 	movi	r2,-22
  802ce8:	00001606 	br	802d44 <alt_adc_word_read+0x9c>
    }

    for(word = 0; word < word_length; word++)
  802cec:	e03ff915 	stw	zero,-28(fp)
  802cf0:	00001006 	br	802d34 <alt_adc_word_read+0x8c>
    {
       *dest_buf = IORD_32DIRECT((base + (word * 4)),0);
  802cf4:	e0bff917 	ldw	r2,-28(fp)
  802cf8:	1085883a 	add	r2,r2,r2
  802cfc:	1085883a 	add	r2,r2,r2
  802d00:	1007883a 	mov	r3,r2
  802d04:	e0bffc17 	ldw	r2,-16(fp)
  802d08:	1885883a 	add	r2,r3,r2
  802d0c:	10800037 	ldwio	r2,0(r2)
  802d10:	1007883a 	mov	r3,r2
  802d14:	e0bffa17 	ldw	r2,-24(fp)
  802d18:	10c00015 	stw	r3,0(r2)

       dest_buf++;
  802d1c:	e0bffa17 	ldw	r2,-24(fp)
  802d20:	10800104 	addi	r2,r2,4
  802d24:	e0bffa15 	stw	r2,-24(fp)
    if(NULL == dest_buf)
    {
    	return -EINVAL;
    }

    for(word = 0; word < word_length; word++)
  802d28:	e0bff917 	ldw	r2,-28(fp)
  802d2c:	10800044 	addi	r2,r2,1
  802d30:	e0bff915 	stw	r2,-28(fp)
  802d34:	e0fff917 	ldw	r3,-28(fp)
  802d38:	e0bffb17 	ldw	r2,-20(fp)
  802d3c:	18bfed36 	bltu	r3,r2,802cf4 <__alt_data_end+0xff802cf4>
       *dest_buf = IORD_32DIRECT((base + (word * 4)),0);

       dest_buf++;
    }

    return 0;
  802d40:	0005883a 	mov	r2,zero

}
  802d44:	e037883a 	mov	sp,fp
  802d48:	df000017 	ldw	fp,0(sp)
  802d4c:	dec00104 	addi	sp,sp,4
  802d50:	f800283a 	ret

00802d54 <altera_modular_adc_init>:


void altera_modular_adc_init(alt_modular_adc_dev* dev, alt_32 ic_id, alt_32 irq)
{
  802d54:	defffa04 	addi	sp,sp,-24
  802d58:	dfc00515 	stw	ra,20(sp)
  802d5c:	df000415 	stw	fp,16(sp)
  802d60:	df000404 	addi	fp,sp,16
  802d64:	e13ffd15 	stw	r4,-12(fp)
  802d68:	e17ffe15 	stw	r5,-8(fp)
  802d6c:	e1bfff15 	stw	r6,-4(fp)
    extern alt_llist altera_modular_adc_list;
    alt_dev_llist_insert((alt_dev_llist*) dev, &altera_modular_adc_list);
  802d70:	d1600004 	addi	r5,gp,-32768
  802d74:	e13ffd17 	ldw	r4,-12(fp)
  802d78:	08033300 	call	803330 <alt_dev_llist_insert>
	
	if ((0 <= ic_id) && (0 <= irq))
  802d7c:	e0bffe17 	ldw	r2,-8(fp)
  802d80:	10000b16 	blt	r2,zero,802db0 <altera_modular_adc_init+0x5c>
  802d84:	e0bfff17 	ldw	r2,-4(fp)
  802d88:	10000916 	blt	r2,zero,802db0 <altera_modular_adc_init+0x5c>
	{
          /* Install IRQ handler */
	  #ifdef ALT_ENHANCED_INTERRUPT_API_PRESENT
              alt_ic_isr_register(ic_id, irq, alt_adc_irq, 
  802d8c:	e0bffe17 	ldw	r2,-8(fp)
  802d90:	e0ffff17 	ldw	r3,-4(fp)
  802d94:	d8000015 	stw	zero,0(sp)
  802d98:	e1fffd17 	ldw	r7,-12(fp)
  802d9c:	01802034 	movhi	r6,128
  802da0:	318b0004 	addi	r6,r6,11264
  802da4:	180b883a 	mov	r5,r3
  802da8:	1009883a 	mov	r4,r2
  802dac:	08034840 	call	803484 <alt_ic_isr_register>
                      dev, NULL);
          #else
             alt_irq_register(irq, dev, alt_adc_irq);
          #endif 
	}
}
  802db0:	0001883a 	nop
  802db4:	e037883a 	mov	sp,fp
  802db8:	dfc00117 	ldw	ra,4(sp)
  802dbc:	df000017 	ldw	fp,0(sp)
  802dc0:	dec00204 	addi	sp,sp,8
  802dc4:	f800283a 	ret

00802dc8 <alt_adc_register_callback>:
void alt_adc_register_callback(
	alt_modular_adc_dev *dev,
	alt_adc_callback callback,
	void *context,
	alt_u32 sample_store_base)
{
  802dc8:	defffa04 	addi	sp,sp,-24
  802dcc:	dfc00515 	stw	ra,20(sp)
  802dd0:	df000415 	stw	fp,16(sp)
  802dd4:	df000404 	addi	fp,sp,16
  802dd8:	e13ffc15 	stw	r4,-16(fp)
  802ddc:	e17ffd15 	stw	r5,-12(fp)
  802de0:	e1bffe15 	stw	r6,-8(fp)
  802de4:	e1ffff15 	stw	r7,-4(fp)
    dev->callback         = callback;
  802de8:	e0bffc17 	ldw	r2,-16(fp)
  802dec:	e0fffd17 	ldw	r3,-12(fp)
  802df0:	10c00a15 	stw	r3,40(r2)
    dev->callback_context = context;
  802df4:	e0bffc17 	ldw	r2,-16(fp)
  802df8:	e0fffe17 	ldw	r3,-8(fp)
  802dfc:	10c00b15 	stw	r3,44(r2)
    dev->sample_store_base = sample_store_base;
  802e00:	e0bffc17 	ldw	r2,-16(fp)
  802e04:	e0ffff17 	ldw	r3,-4(fp)
  802e08:	10c00c15 	stw	r3,48(r2)
	
	if(NULL != callback)
  802e0c:	e0bffd17 	ldw	r2,-12(fp)
  802e10:	10000726 	beq	r2,zero,802e30 <alt_adc_register_callback+0x68>
	{
                adc_clear_interrupt_status(sample_store_base);
  802e14:	e0bfff17 	ldw	r2,-4(fp)
  802e18:	1009883a 	mov	r4,r2
  802e1c:	08030ac0 	call	8030ac <adc_clear_interrupt_status>
		adc_interrupt_enable(sample_store_base);
  802e20:	e0bfff17 	ldw	r2,-4(fp)
  802e24:	1009883a 	mov	r4,r2
  802e28:	08030200 	call	803020 <adc_interrupt_enable>
                adc_clear_interrupt_status(sample_store_base);
	}
	
    
	
    return ;
  802e2c:	00000706 	br	802e4c <alt_adc_register_callback+0x84>
                adc_clear_interrupt_status(sample_store_base);
		adc_interrupt_enable(sample_store_base);
	}
	else
	{
		adc_interrupt_disable(sample_store_base);
  802e30:	e0bfff17 	ldw	r2,-4(fp)
  802e34:	1009883a 	mov	r4,r2
  802e38:	08030640 	call	803064 <adc_interrupt_disable>
                adc_clear_interrupt_status(sample_store_base);
  802e3c:	e0bfff17 	ldw	r2,-4(fp)
  802e40:	1009883a 	mov	r4,r2
  802e44:	08030ac0 	call	8030ac <adc_clear_interrupt_status>
	}
	
    
	
    return ;
  802e48:	0001883a 	nop
}
  802e4c:	e037883a 	mov	sp,fp
  802e50:	dfc00117 	ldw	ra,4(sp)
  802e54:	df000017 	ldw	fp,0(sp)
  802e58:	dec00204 	addi	sp,sp,8
  802e5c:	f800283a 	ret

00802e60 <altera_modular_adc_open>:

alt_modular_adc_dev* altera_modular_adc_open (const char *name)
{
  802e60:	defffc04 	addi	sp,sp,-16
  802e64:	dfc00315 	stw	ra,12(sp)
  802e68:	df000215 	stw	fp,8(sp)
  802e6c:	df000204 	addi	fp,sp,8
  802e70:	e13fff15 	stw	r4,-4(fp)
    alt_modular_adc_dev *dev = NULL;
  802e74:	e03ffe15 	stw	zero,-8(fp)

    /* Find requested device */
    dev = (alt_modular_adc_dev*) alt_find_dev (name, &altera_modular_adc_list);
  802e78:	d1600004 	addi	r5,gp,-32768
  802e7c:	e13fff17 	ldw	r4,-4(fp)
  802e80:	08033d40 	call	8033d4 <alt_find_dev>
  802e84:	e0bffe15 	stw	r2,-8(fp)

    return dev;
  802e88:	e0bffe17 	ldw	r2,-8(fp)
}
  802e8c:	e037883a 	mov	sp,fp
  802e90:	dfc00117 	ldw	ra,4(sp)
  802e94:	df000017 	ldw	fp,0(sp)
  802e98:	dec00204 	addi	sp,sp,8
  802e9c:	f800283a 	ret

00802ea0 <adc_stop>:

void adc_stop(int sequencer_base)
{
  802ea0:	defffe04 	addi	sp,sp,-8
  802ea4:	df000115 	stw	fp,4(sp)
  802ea8:	df000104 	addi	fp,sp,4
  802eac:	e13fff15 	stw	r4,-4(fp)
    ALTERA_MODULAR_ADC_SEQUENCER_STOP(sequencer_base);
  802eb0:	e0bfff17 	ldw	r2,-4(fp)
  802eb4:	e0ffff17 	ldw	r3,-4(fp)
  802eb8:	19000037 	ldwio	r4,0(r3)
  802ebc:	00ffff84 	movi	r3,-2
  802ec0:	20c6703a 	and	r3,r4,r3
  802ec4:	10c00035 	stwio	r3,0(r2)
  802ec8:	0001883a 	nop
  802ecc:	e0bfff17 	ldw	r2,-4(fp)
  802ed0:	10800037 	ldwio	r2,0(r2)
  802ed4:	1080004c 	andi	r2,r2,1
  802ed8:	103ffc1e 	bne	r2,zero,802ecc <__alt_data_end+0xff802ecc>
}
  802edc:	0001883a 	nop
  802ee0:	e037883a 	mov	sp,fp
  802ee4:	df000017 	ldw	fp,0(sp)
  802ee8:	dec00104 	addi	sp,sp,4
  802eec:	f800283a 	ret

00802ef0 <adc_start>:

void adc_start(int sequencer_base)
{
  802ef0:	defffe04 	addi	sp,sp,-8
  802ef4:	df000115 	stw	fp,4(sp)
  802ef8:	df000104 	addi	fp,sp,4
  802efc:	e13fff15 	stw	r4,-4(fp)
    ALTERA_MODULAR_ADC_SEQUENCER_START(sequencer_base);
  802f00:	e0bfff17 	ldw	r2,-4(fp)
  802f04:	e0ffff17 	ldw	r3,-4(fp)
  802f08:	18c00037 	ldwio	r3,0(r3)
  802f0c:	18c00054 	ori	r3,r3,1
  802f10:	10c00035 	stwio	r3,0(r2)
}
  802f14:	0001883a 	nop
  802f18:	e037883a 	mov	sp,fp
  802f1c:	df000017 	ldw	fp,0(sp)
  802f20:	dec00104 	addi	sp,sp,4
  802f24:	f800283a 	ret

00802f28 <adc_set_mode_run_once>:

void adc_set_mode_run_once(int sequencer_base)
{
  802f28:	defffe04 	addi	sp,sp,-8
  802f2c:	df000115 	stw	fp,4(sp)
  802f30:	df000104 	addi	fp,sp,4
  802f34:	e13fff15 	stw	r4,-4(fp)
    /* Note: Stop the ADC before calling this function,
       changing ADC mode while RUN bit is set has no effect. */
    ALTERA_MODULAR_ADC_SEQUENCER_MODE_RUN_ONCE(sequencer_base);
  802f38:	e0bfff17 	ldw	r2,-4(fp)
  802f3c:	e0ffff17 	ldw	r3,-4(fp)
  802f40:	19000037 	ldwio	r4,0(r3)
  802f44:	00fffc44 	movi	r3,-15
  802f48:	20c6703a 	and	r3,r4,r3
  802f4c:	18c00094 	ori	r3,r3,2
  802f50:	10c00035 	stwio	r3,0(r2)
}
  802f54:	0001883a 	nop
  802f58:	e037883a 	mov	sp,fp
  802f5c:	df000017 	ldw	fp,0(sp)
  802f60:	dec00104 	addi	sp,sp,4
  802f64:	f800283a 	ret

00802f68 <adc_set_mode_run_continuously>:

void adc_set_mode_run_continuously(int sequencer_base)
{
  802f68:	defffe04 	addi	sp,sp,-8
  802f6c:	df000115 	stw	fp,4(sp)
  802f70:	df000104 	addi	fp,sp,4
  802f74:	e13fff15 	stw	r4,-4(fp)
    /* Note: Stop the ADC before calling this function,
       changing ADC mode while RUN bit is set has no effect. */
    ALTERA_MODULAR_ADC_SEQUENCER_MODE_RUN_CONTINUOUSLY(sequencer_base);
  802f78:	e0bfff17 	ldw	r2,-4(fp)
  802f7c:	e0ffff17 	ldw	r3,-4(fp)
  802f80:	19000037 	ldwio	r4,0(r3)
  802f84:	00fffc44 	movi	r3,-15
  802f88:	20c6703a 	and	r3,r4,r3
  802f8c:	10c00035 	stwio	r3,0(r2)
}
  802f90:	0001883a 	nop
  802f94:	e037883a 	mov	sp,fp
  802f98:	df000017 	ldw	fp,0(sp)
  802f9c:	dec00104 	addi	sp,sp,4
  802fa0:	f800283a 	ret

00802fa4 <adc_recalibrate>:

void adc_recalibrate(int sequencer_base)
{
  802fa4:	defffc04 	addi	sp,sp,-16
  802fa8:	dfc00315 	stw	ra,12(sp)
  802fac:	df000215 	stw	fp,8(sp)
  802fb0:	df000204 	addi	fp,sp,8
  802fb4:	e13fff15 	stw	r4,-4(fp)
         2. Start the ADC Sequencer Core.
         5. Poll for RUN bit to be clear
         6. Restore CMD register
     */
    alt_u32 backup_cmd_reg;
    backup_cmd_reg = IORD_ALTERA_MODULAR_ADC_SEQUENCER_CMD_REG(sequencer_base);
  802fb8:	e0bfff17 	ldw	r2,-4(fp)
  802fbc:	10800037 	ldwio	r2,0(r2)
  802fc0:	e0bffe15 	stw	r2,-8(fp)
    adc_stop(sequencer_base);
  802fc4:	e13fff17 	ldw	r4,-4(fp)
  802fc8:	0802ea00 	call	802ea0 <adc_stop>
    ALTERA_MODULAR_ADC_SEQUENCER_MODE_RUN_RECALIBRATION(sequencer_base);
  802fcc:	e0bfff17 	ldw	r2,-4(fp)
  802fd0:	e0ffff17 	ldw	r3,-4(fp)
  802fd4:	18c00037 	ldwio	r3,0(r3)
  802fd8:	18c00394 	ori	r3,r3,14
  802fdc:	10c00035 	stwio	r3,0(r2)
    adc_start(sequencer_base);
  802fe0:	e13fff17 	ldw	r4,-4(fp)
  802fe4:	0802ef00 	call	802ef0 <adc_start>
    while(IORD_ALTERA_MODULAR_ADC_SEQUENCER_CMD_REG(sequencer_base)
  802fe8:	0001883a 	nop
  802fec:	e0bfff17 	ldw	r2,-4(fp)
  802ff0:	10800037 	ldwio	r2,0(r2)
             & ALTERA_MODULAR_ADC_SEQUENCER_CMD_RUN_MSK);
  802ff4:	1080004c 	andi	r2,r2,1
    alt_u32 backup_cmd_reg;
    backup_cmd_reg = IORD_ALTERA_MODULAR_ADC_SEQUENCER_CMD_REG(sequencer_base);
    adc_stop(sequencer_base);
    ALTERA_MODULAR_ADC_SEQUENCER_MODE_RUN_RECALIBRATION(sequencer_base);
    adc_start(sequencer_base);
    while(IORD_ALTERA_MODULAR_ADC_SEQUENCER_CMD_REG(sequencer_base)
  802ff8:	103ffc1e 	bne	r2,zero,802fec <__alt_data_end+0xff802fec>
             & ALTERA_MODULAR_ADC_SEQUENCER_CMD_RUN_MSK);
    IOWR_ALTERA_MODULAR_ADC_SEQUENCER_CMD_REG(sequencer_base, backup_cmd_reg);
  802ffc:	e0bfff17 	ldw	r2,-4(fp)
  803000:	e0fffe17 	ldw	r3,-8(fp)
  803004:	10c00035 	stwio	r3,0(r2)
}
  803008:	0001883a 	nop
  80300c:	e037883a 	mov	sp,fp
  803010:	dfc00117 	ldw	ra,4(sp)
  803014:	df000017 	ldw	fp,0(sp)
  803018:	dec00204 	addi	sp,sp,8
  80301c:	f800283a 	ret

00803020 <adc_interrupt_enable>:

void adc_interrupt_enable(int sample_store_base)
{
  803020:	defffe04 	addi	sp,sp,-8
  803024:	df000115 	stw	fp,4(sp)
  803028:	df000104 	addi	fp,sp,4
  80302c:	e13fff15 	stw	r4,-4(fp)
    ALTERA_MODULAR_ADC_SAMPLE_STORAGE_IRQ_ENABLE(sample_store_base);
  803030:	e0bfff17 	ldw	r2,-4(fp)
  803034:	10804004 	addi	r2,r2,256
  803038:	1007883a 	mov	r3,r2
  80303c:	e0bfff17 	ldw	r2,-4(fp)
  803040:	10804004 	addi	r2,r2,256
  803044:	10800037 	ldwio	r2,0(r2)
  803048:	10800054 	ori	r2,r2,1
  80304c:	18800035 	stwio	r2,0(r3)
}
  803050:	0001883a 	nop
  803054:	e037883a 	mov	sp,fp
  803058:	df000017 	ldw	fp,0(sp)
  80305c:	dec00104 	addi	sp,sp,4
  803060:	f800283a 	ret

00803064 <adc_interrupt_disable>:

void adc_interrupt_disable(int sample_store_base)
{
  803064:	defffe04 	addi	sp,sp,-8
  803068:	df000115 	stw	fp,4(sp)
  80306c:	df000104 	addi	fp,sp,4
  803070:	e13fff15 	stw	r4,-4(fp)
    ALTERA_MODULAR_ADC_SAMPLE_STORAGE_IRQ_DISABLE(sample_store_base);
  803074:	e0bfff17 	ldw	r2,-4(fp)
  803078:	10804004 	addi	r2,r2,256
  80307c:	1009883a 	mov	r4,r2
  803080:	e0bfff17 	ldw	r2,-4(fp)
  803084:	10804004 	addi	r2,r2,256
  803088:	10c00037 	ldwio	r3,0(r2)
  80308c:	00bfff84 	movi	r2,-2
  803090:	1884703a 	and	r2,r3,r2
  803094:	20800035 	stwio	r2,0(r4)
}
  803098:	0001883a 	nop
  80309c:	e037883a 	mov	sp,fp
  8030a0:	df000017 	ldw	fp,0(sp)
  8030a4:	dec00104 	addi	sp,sp,4
  8030a8:	f800283a 	ret

008030ac <adc_clear_interrupt_status>:

void adc_clear_interrupt_status(int sample_store_base)
{
  8030ac:	defffe04 	addi	sp,sp,-8
  8030b0:	df000115 	stw	fp,4(sp)
  8030b4:	df000104 	addi	fp,sp,4
  8030b8:	e13fff15 	stw	r4,-4(fp)
    CLEAR_ALTERA_MODULAR_ADC_SAMPLE_STORAGE_IRQ_STATUS(sample_store_base);
  8030bc:	e0bfff17 	ldw	r2,-4(fp)
  8030c0:	10804104 	addi	r2,r2,260
  8030c4:	1007883a 	mov	r3,r2
  8030c8:	e0bfff17 	ldw	r2,-4(fp)
  8030cc:	10804104 	addi	r2,r2,260
  8030d0:	10800037 	ldwio	r2,0(r2)
  8030d4:	10800054 	ori	r2,r2,1
  8030d8:	18800035 	stwio	r2,0(r3)
}
  8030dc:	0001883a 	nop
  8030e0:	e037883a 	mov	sp,fp
  8030e4:	df000017 	ldw	fp,0(sp)
  8030e8:	dec00104 	addi	sp,sp,4
  8030ec:	f800283a 	ret

008030f0 <adc_interrupt_asserted>:

int adc_interrupt_asserted(int sample_store_base)
{
  8030f0:	defffe04 	addi	sp,sp,-8
  8030f4:	df000115 	stw	fp,4(sp)
  8030f8:	df000104 	addi	fp,sp,4
  8030fc:	e13fff15 	stw	r4,-4(fp)
    return((READ_ALTERA_MODULAR_ADC_SAMPLE_STORAGE_IRQ_STATUS(sample_store_base)==1) ? -1 : 0);
  803100:	e0bfff17 	ldw	r2,-4(fp)
  803104:	10804104 	addi	r2,r2,260
  803108:	10800037 	ldwio	r2,0(r2)
  80310c:	1080004c 	andi	r2,r2,1
  803110:	10000226 	beq	r2,zero,80311c <adc_interrupt_asserted+0x2c>
  803114:	00bfffc4 	movi	r2,-1
  803118:	00000106 	br	803120 <adc_interrupt_asserted+0x30>
  80311c:	0005883a 	mov	r2,zero
}
  803120:	e037883a 	mov	sp,fp
  803124:	df000017 	ldw	fp,0(sp)
  803128:	dec00104 	addi	sp,sp,4
  80312c:	f800283a 	ret

00803130 <adc_wait_for_interrupt>:

void adc_wait_for_interrupt(int sample_store_base)
{
  803130:	defffe04 	addi	sp,sp,-8
  803134:	df000115 	stw	fp,4(sp)
  803138:	df000104 	addi	fp,sp,4
  80313c:	e13fff15 	stw	r4,-4(fp)
    WAIT_FOR_ALTERA_MODULAR_ADC_SAMPLE_STORAGE_IRQ(sample_store_base);
  803140:	0001883a 	nop
  803144:	e0bfff17 	ldw	r2,-4(fp)
  803148:	10804104 	addi	r2,r2,260
  80314c:	10800037 	ldwio	r2,0(r2)
  803150:	1080004c 	andi	r2,r2,1
  803154:	103ffb26 	beq	r2,zero,803144 <__alt_data_end+0xff803144>
}
  803158:	0001883a 	nop
  80315c:	e037883a 	mov	sp,fp
  803160:	df000017 	ldw	fp,0(sp)
  803164:	dec00104 	addi	sp,sp,4
  803168:	f800283a 	ret

0080316c <alt_get_errno>:
#undef errno

extern int errno;

static ALT_INLINE int* alt_get_errno(void)
{
  80316c:	defffe04 	addi	sp,sp,-8
  803170:	dfc00115 	stw	ra,4(sp)
  803174:	df000015 	stw	fp,0(sp)
  803178:	d839883a 	mov	fp,sp
  return ((alt_errno) ? alt_errno() : &errno);
  80317c:	00802034 	movhi	r2,128
  803180:	10921b04 	addi	r2,r2,18540
  803184:	10800017 	ldw	r2,0(r2)
  803188:	10000526 	beq	r2,zero,8031a0 <alt_get_errno+0x34>
  80318c:	00802034 	movhi	r2,128
  803190:	10921b04 	addi	r2,r2,18540
  803194:	10800017 	ldw	r2,0(r2)
  803198:	103ee83a 	callr	r2
  80319c:	00000206 	br	8031a8 <alt_get_errno+0x3c>
  8031a0:	00802034 	movhi	r2,128
  8031a4:	1092ee04 	addi	r2,r2,19384
}
  8031a8:	e037883a 	mov	sp,fp
  8031ac:	dfc00117 	ldw	ra,4(sp)
  8031b0:	df000017 	ldw	fp,0(sp)
  8031b4:	dec00204 	addi	sp,sp,8
  8031b8:	f800283a 	ret

008031bc <close>:
 *
 * ALT_CLOSE is mapped onto the close() system call in alt_syscall.h
 */
 
int ALT_CLOSE (int fildes)
{
  8031bc:	defffb04 	addi	sp,sp,-20
  8031c0:	dfc00415 	stw	ra,16(sp)
  8031c4:	df000315 	stw	fp,12(sp)
  8031c8:	df000304 	addi	fp,sp,12
  8031cc:	e13fff15 	stw	r4,-4(fp)
   * A common error case is that when the file descriptor was created, the call
   * to open() failed resulting in a negative file descriptor. This is trapped
   * below so that we don't try and process an invalid file descriptor.
   */

  fd = (fildes < 0) ? NULL : &alt_fd_list[fildes];
  8031d0:	e0bfff17 	ldw	r2,-4(fp)
  8031d4:	10000816 	blt	r2,zero,8031f8 <close+0x3c>
  8031d8:	01400304 	movi	r5,12
  8031dc:	e13fff17 	ldw	r4,-4(fp)
  8031e0:	08024b40 	call	8024b4 <__mulsi3>
  8031e4:	1007883a 	mov	r3,r2
  8031e8:	00802034 	movhi	r2,128
  8031ec:	10917c04 	addi	r2,r2,17904
  8031f0:	1885883a 	add	r2,r3,r2
  8031f4:	00000106 	br	8031fc <close+0x40>
  8031f8:	0005883a 	mov	r2,zero
  8031fc:	e0bffd15 	stw	r2,-12(fp)

  if (fd)
  803200:	e0bffd17 	ldw	r2,-12(fp)
  803204:	10001926 	beq	r2,zero,80326c <close+0xb0>
    /*
     * If the associated file system/device has a close function, call it so 
     * that any necessary cleanup code can run.
     */

    rval = (fd->dev->close) ? fd->dev->close(fd) : 0;
  803208:	e0bffd17 	ldw	r2,-12(fp)
  80320c:	10800017 	ldw	r2,0(r2)
  803210:	10800417 	ldw	r2,16(r2)
  803214:	10000626 	beq	r2,zero,803230 <close+0x74>
  803218:	e0bffd17 	ldw	r2,-12(fp)
  80321c:	10800017 	ldw	r2,0(r2)
  803220:	10800417 	ldw	r2,16(r2)
  803224:	e13ffd17 	ldw	r4,-12(fp)
  803228:	103ee83a 	callr	r2
  80322c:	00000106 	br	803234 <close+0x78>
  803230:	0005883a 	mov	r2,zero
  803234:	e0bffe15 	stw	r2,-8(fp)

    /* Free the file descriptor structure and return. */

    alt_release_fd (fildes);
  803238:	e13fff17 	ldw	r4,-4(fp)
  80323c:	0803b580 	call	803b58 <alt_release_fd>
    if (rval < 0)
  803240:	e0bffe17 	ldw	r2,-8(fp)
  803244:	1000070e 	bge	r2,zero,803264 <close+0xa8>
    {
      ALT_ERRNO = -rval;
  803248:	080316c0 	call	80316c <alt_get_errno>
  80324c:	1007883a 	mov	r3,r2
  803250:	e0bffe17 	ldw	r2,-8(fp)
  803254:	0085c83a 	sub	r2,zero,r2
  803258:	18800015 	stw	r2,0(r3)
      return -1;
  80325c:	00bfffc4 	movi	r2,-1
  803260:	00000706 	br	803280 <close+0xc4>
    }
    return 0;
  803264:	0005883a 	mov	r2,zero
  803268:	00000506 	br	803280 <close+0xc4>
  }
  else
  {
    ALT_ERRNO = EBADFD;
  80326c:	080316c0 	call	80316c <alt_get_errno>
  803270:	1007883a 	mov	r3,r2
  803274:	00801444 	movi	r2,81
  803278:	18800015 	stw	r2,0(r3)
    return -1;
  80327c:	00bfffc4 	movi	r2,-1
  }
}
  803280:	e037883a 	mov	sp,fp
  803284:	dfc00117 	ldw	ra,4(sp)
  803288:	df000017 	ldw	fp,0(sp)
  80328c:	dec00204 	addi	sp,sp,8
  803290:	f800283a 	ret

00803294 <alt_dcache_flush_all>:
/*
 * alt_dcache_flush_all() is called to flush the entire data cache.
 */

void alt_dcache_flush_all (void)
{
  803294:	deffff04 	addi	sp,sp,-4
  803298:	df000015 	stw	fp,0(sp)
  80329c:	d839883a 	mov	fp,sp
  for (i = (char*) 0; i < (char*) NIOS2_DCACHE_SIZE; i+= NIOS2_DCACHE_LINE_SIZE)
  { 
    __asm__ volatile ("flushd (%0)" :: "r" (i));
  }
#endif /* NIOS2_DCACHE_SIZE > 0 */
}
  8032a0:	0001883a 	nop
  8032a4:	e037883a 	mov	sp,fp
  8032a8:	df000017 	ldw	fp,0(sp)
  8032ac:	dec00104 	addi	sp,sp,4
  8032b0:	f800283a 	ret

008032b4 <alt_dev_null_write>:
 * by the alt_dev_null device. It simple discards all data passed to it, and
 * indicates that the data has been successfully transmitted.
 */

static int alt_dev_null_write (alt_fd* fd, const char* ptr, int len)
{
  8032b4:	defffc04 	addi	sp,sp,-16
  8032b8:	df000315 	stw	fp,12(sp)
  8032bc:	df000304 	addi	fp,sp,12
  8032c0:	e13ffd15 	stw	r4,-12(fp)
  8032c4:	e17ffe15 	stw	r5,-8(fp)
  8032c8:	e1bfff15 	stw	r6,-4(fp)
  return len;
  8032cc:	e0bfff17 	ldw	r2,-4(fp)
}
  8032d0:	e037883a 	mov	sp,fp
  8032d4:	df000017 	ldw	fp,0(sp)
  8032d8:	dec00104 	addi	sp,sp,4
  8032dc:	f800283a 	ret

008032e0 <alt_get_errno>:
#undef errno

extern int errno;

static ALT_INLINE int* alt_get_errno(void)
{
  8032e0:	defffe04 	addi	sp,sp,-8
  8032e4:	dfc00115 	stw	ra,4(sp)
  8032e8:	df000015 	stw	fp,0(sp)
  8032ec:	d839883a 	mov	fp,sp
  return ((alt_errno) ? alt_errno() : &errno);
  8032f0:	00802034 	movhi	r2,128
  8032f4:	10921b04 	addi	r2,r2,18540
  8032f8:	10800017 	ldw	r2,0(r2)
  8032fc:	10000526 	beq	r2,zero,803314 <alt_get_errno+0x34>
  803300:	00802034 	movhi	r2,128
  803304:	10921b04 	addi	r2,r2,18540
  803308:	10800017 	ldw	r2,0(r2)
  80330c:	103ee83a 	callr	r2
  803310:	00000206 	br	80331c <alt_get_errno+0x3c>
  803314:	00802034 	movhi	r2,128
  803318:	1092ee04 	addi	r2,r2,19384
}
  80331c:	e037883a 	mov	sp,fp
  803320:	dfc00117 	ldw	ra,4(sp)
  803324:	df000017 	ldw	fp,0(sp)
  803328:	dec00204 	addi	sp,sp,8
  80332c:	f800283a 	ret

00803330 <alt_dev_llist_insert>:
/*
 *
 */

int alt_dev_llist_insert (alt_dev_llist* dev, alt_llist* list)
{
  803330:	defffa04 	addi	sp,sp,-24
  803334:	dfc00515 	stw	ra,20(sp)
  803338:	df000415 	stw	fp,16(sp)
  80333c:	df000404 	addi	fp,sp,16
  803340:	e13ffe15 	stw	r4,-8(fp)
  803344:	e17fff15 	stw	r5,-4(fp)
  /*
   * check that the device exists, and that it has a valid name.
   */

  if (!dev || !dev->name)
  803348:	e0bffe17 	ldw	r2,-8(fp)
  80334c:	10000326 	beq	r2,zero,80335c <alt_dev_llist_insert+0x2c>
  803350:	e0bffe17 	ldw	r2,-8(fp)
  803354:	10800217 	ldw	r2,8(r2)
  803358:	1000061e 	bne	r2,zero,803374 <alt_dev_llist_insert+0x44>
  {
    ALT_ERRNO = EINVAL;
  80335c:	08032e00 	call	8032e0 <alt_get_errno>
  803360:	1007883a 	mov	r3,r2
  803364:	00800584 	movi	r2,22
  803368:	18800015 	stw	r2,0(r3)
    return -EINVAL;
  80336c:	00bffa84 	movi	r2,-22
  803370:	00001306 	br	8033c0 <alt_dev_llist_insert+0x90>
  
  /*
   * register the device.
   */
  
  alt_llist_insert(list, &dev->llist);
  803374:	e0bffe17 	ldw	r2,-8(fp)
  803378:	e0ffff17 	ldw	r3,-4(fp)
  80337c:	e0fffc15 	stw	r3,-16(fp)
  803380:	e0bffd15 	stw	r2,-12(fp)
 */

static ALT_INLINE void ALT_ALWAYS_INLINE alt_llist_insert(alt_llist* list, 
                alt_llist* entry)
{
  entry->previous = list;
  803384:	e0bffd17 	ldw	r2,-12(fp)
  803388:	e0fffc17 	ldw	r3,-16(fp)
  80338c:	10c00115 	stw	r3,4(r2)
  entry->next     = list->next;
  803390:	e0bffc17 	ldw	r2,-16(fp)
  803394:	10c00017 	ldw	r3,0(r2)
  803398:	e0bffd17 	ldw	r2,-12(fp)
  80339c:	10c00015 	stw	r3,0(r2)

  list->next->previous = entry;
  8033a0:	e0bffc17 	ldw	r2,-16(fp)
  8033a4:	10800017 	ldw	r2,0(r2)
  8033a8:	e0fffd17 	ldw	r3,-12(fp)
  8033ac:	10c00115 	stw	r3,4(r2)
  list->next           = entry;
  8033b0:	e0bffc17 	ldw	r2,-16(fp)
  8033b4:	e0fffd17 	ldw	r3,-12(fp)
  8033b8:	10c00015 	stw	r3,0(r2)

  return 0;  
  8033bc:	0005883a 	mov	r2,zero
}
  8033c0:	e037883a 	mov	sp,fp
  8033c4:	dfc00117 	ldw	ra,4(sp)
  8033c8:	df000017 	ldw	fp,0(sp)
  8033cc:	dec00204 	addi	sp,sp,8
  8033d0:	f800283a 	ret

008033d4 <alt_find_dev>:
 * "name" must be an exact match for the devices registered name for a match to
 * be found.
 */
 
alt_dev* alt_find_dev(const char* name, alt_llist* llist)
{
  8033d4:	defffa04 	addi	sp,sp,-24
  8033d8:	dfc00515 	stw	ra,20(sp)
  8033dc:	df000415 	stw	fp,16(sp)
  8033e0:	df000404 	addi	fp,sp,16
  8033e4:	e13ffe15 	stw	r4,-8(fp)
  8033e8:	e17fff15 	stw	r5,-4(fp)
  alt_dev* next = (alt_dev*) llist->next;
  8033ec:	e0bfff17 	ldw	r2,-4(fp)
  8033f0:	10800017 	ldw	r2,0(r2)
  8033f4:	e0bffc15 	stw	r2,-16(fp)
  alt_32 len;

  len  = strlen(name) + 1;
  8033f8:	e13ffe17 	ldw	r4,-8(fp)
  8033fc:	08025940 	call	802594 <strlen>
  803400:	10800044 	addi	r2,r2,1
  803404:	e0bffd15 	stw	r2,-12(fp)
  /*
   * Check each list entry in turn, until a match is found, or we reach the
   * end of the list (i.e. next winds up pointing back to the list head).
   */ 

  while (next != (alt_dev*) llist)
  803408:	00000d06 	br	803440 <alt_find_dev+0x6c>
    /* 
     * memcmp() is used here rather than strcmp() in order to reduce the size
     * of the executable.
     */

    if (!memcmp (next->name, name, len))
  80340c:	e0bffc17 	ldw	r2,-16(fp)
  803410:	10800217 	ldw	r2,8(r2)
  803414:	e0fffd17 	ldw	r3,-12(fp)
  803418:	180d883a 	mov	r6,r3
  80341c:	e17ffe17 	ldw	r5,-8(fp)
  803420:	1009883a 	mov	r4,r2
  803424:	0803ea40 	call	803ea4 <memcmp>
  803428:	1000021e 	bne	r2,zero,803434 <alt_find_dev+0x60>
    {
      /* match found */

      return next;
  80342c:	e0bffc17 	ldw	r2,-16(fp)
  803430:	00000706 	br	803450 <alt_find_dev+0x7c>
    }
    next = (alt_dev*) next->llist.next;
  803434:	e0bffc17 	ldw	r2,-16(fp)
  803438:	10800017 	ldw	r2,0(r2)
  80343c:	e0bffc15 	stw	r2,-16(fp)
  /*
   * Check each list entry in turn, until a match is found, or we reach the
   * end of the list (i.e. next winds up pointing back to the list head).
   */ 

  while (next != (alt_dev*) llist)
  803440:	e0fffc17 	ldw	r3,-16(fp)
  803444:	e0bfff17 	ldw	r2,-4(fp)
  803448:	18bff01e 	bne	r3,r2,80340c <__alt_data_end+0xff80340c>
    next = (alt_dev*) next->llist.next;
  }
  
  /* No match found */
  
  return NULL;
  80344c:	0005883a 	mov	r2,zero
}
  803450:	e037883a 	mov	sp,fp
  803454:	dfc00117 	ldw	ra,4(sp)
  803458:	df000017 	ldw	fp,0(sp)
  80345c:	dec00204 	addi	sp,sp,8
  803460:	f800283a 	ret

00803464 <alt_icache_flush_all>:
/*
 * alt_icache_flush_all() is called to flush the entire instruction cache.
 */

void alt_icache_flush_all (void)
{
  803464:	deffff04 	addi	sp,sp,-4
  803468:	df000015 	stw	fp,0(sp)
  80346c:	d839883a 	mov	fp,sp
#if NIOS2_ICACHE_SIZE > 0
  alt_icache_flush (0, NIOS2_ICACHE_SIZE);
#endif
}
  803470:	0001883a 	nop
  803474:	e037883a 	mov	sp,fp
  803478:	df000017 	ldw	fp,0(sp)
  80347c:	dec00104 	addi	sp,sp,4
  803480:	f800283a 	ret

00803484 <alt_ic_isr_register>:
  * @param irq              IRQ number
  * @return                 0 if successful, else error (-1)
  */
int alt_ic_isr_register(alt_u32 ic_id, alt_u32 irq, alt_isr_func isr, 
  void *isr_context, void *flags)
{
  803484:	defff904 	addi	sp,sp,-28
  803488:	dfc00615 	stw	ra,24(sp)
  80348c:	df000515 	stw	fp,20(sp)
  803490:	df000504 	addi	fp,sp,20
  803494:	e13ffc15 	stw	r4,-16(fp)
  803498:	e17ffd15 	stw	r5,-12(fp)
  80349c:	e1bffe15 	stw	r6,-8(fp)
  8034a0:	e1ffff15 	stw	r7,-4(fp)
    return alt_iic_isr_register(ic_id, irq, isr, isr_context, flags);
  8034a4:	e0800217 	ldw	r2,8(fp)
  8034a8:	d8800015 	stw	r2,0(sp)
  8034ac:	e1ffff17 	ldw	r7,-4(fp)
  8034b0:	e1bffe17 	ldw	r6,-8(fp)
  8034b4:	e17ffd17 	ldw	r5,-12(fp)
  8034b8:	e13ffc17 	ldw	r4,-16(fp)
  8034bc:	08036640 	call	803664 <alt_iic_isr_register>
}  
  8034c0:	e037883a 	mov	sp,fp
  8034c4:	dfc00117 	ldw	ra,4(sp)
  8034c8:	df000017 	ldw	fp,0(sp)
  8034cc:	dec00204 	addi	sp,sp,8
  8034d0:	f800283a 	ret

008034d4 <alt_ic_irq_enable>:
  * @param ic_id            Ignored.
  * @param irq              IRQ number
  * @return                 0 if successful, else error (-1)
  */
int alt_ic_irq_enable (alt_u32 ic_id, alt_u32 irq)
{
  8034d4:	defff904 	addi	sp,sp,-28
  8034d8:	df000615 	stw	fp,24(sp)
  8034dc:	df000604 	addi	fp,sp,24
  8034e0:	e13ffe15 	stw	r4,-8(fp)
  8034e4:	e17fff15 	stw	r5,-4(fp)
  8034e8:	e0bfff17 	ldw	r2,-4(fp)
  8034ec:	e0bffa15 	stw	r2,-24(fp)
static ALT_INLINE alt_irq_context ALT_ALWAYS_INLINE 
       alt_irq_disable_all (void)
{
  alt_irq_context context;

  NIOS2_READ_STATUS (context);
  8034f0:	0005303a 	rdctl	r2,status
  8034f4:	e0bffb15 	stw	r2,-20(fp)

  NIOS2_WRITE_STATUS (context & ~NIOS2_STATUS_PIE_MSK);
  8034f8:	e0fffb17 	ldw	r3,-20(fp)
  8034fc:	00bfff84 	movi	r2,-2
  803500:	1884703a 	and	r2,r3,r2
  803504:	1001703a 	wrctl	status,r2
  
  return context;
  803508:	e0bffb17 	ldw	r2,-20(fp)
static ALT_INLINE int ALT_ALWAYS_INLINE alt_irq_enable (alt_u32 id)
{
  alt_irq_context  status;
  extern volatile alt_u32 alt_irq_active;

  status = alt_irq_disable_all ();
  80350c:	e0bffc15 	stw	r2,-16(fp)

  alt_irq_active |= (1 << id);
  803510:	00c00044 	movi	r3,1
  803514:	e0bffa17 	ldw	r2,-24(fp)
  803518:	1884983a 	sll	r2,r3,r2
  80351c:	1007883a 	mov	r3,r2
  803520:	00802034 	movhi	r2,128
  803524:	1092ec04 	addi	r2,r2,19376
  803528:	10800017 	ldw	r2,0(r2)
  80352c:	1886b03a 	or	r3,r3,r2
  803530:	00802034 	movhi	r2,128
  803534:	1092ec04 	addi	r2,r2,19376
  803538:	10c00015 	stw	r3,0(r2)
  NIOS2_WRITE_IENABLE (alt_irq_active);
  80353c:	00802034 	movhi	r2,128
  803540:	1092ec04 	addi	r2,r2,19376
  803544:	10800017 	ldw	r2,0(r2)
  803548:	100170fa 	wrctl	ienable,r2
  80354c:	e0bffc17 	ldw	r2,-16(fp)
  803550:	e0bffd15 	stw	r2,-12(fp)
  status &= ~NIOS2_STATUS_PIE_MSK;
  status |= (context & NIOS2_STATUS_PIE_MSK);
  
  NIOS2_WRITE_STATUS (status);
#else
  NIOS2_WRITE_STATUS (context);
  803554:	e0bffd17 	ldw	r2,-12(fp)
  803558:	1001703a 	wrctl	status,r2

  alt_irq_enable_all(status);

  return 0;
  80355c:	0005883a 	mov	r2,zero
    return alt_irq_enable(irq);
  803560:	0001883a 	nop
}
  803564:	e037883a 	mov	sp,fp
  803568:	df000017 	ldw	fp,0(sp)
  80356c:	dec00104 	addi	sp,sp,4
  803570:	f800283a 	ret

00803574 <alt_ic_irq_disable>:
  * @param ic_id            Ignored.
  * @param irq              IRQ number
  * @return                 0 if successful, else error (-1)
  */
int alt_ic_irq_disable(alt_u32 ic_id, alt_u32 irq)
{
  803574:	defff904 	addi	sp,sp,-28
  803578:	df000615 	stw	fp,24(sp)
  80357c:	df000604 	addi	fp,sp,24
  803580:	e13ffe15 	stw	r4,-8(fp)
  803584:	e17fff15 	stw	r5,-4(fp)
  803588:	e0bfff17 	ldw	r2,-4(fp)
  80358c:	e0bffa15 	stw	r2,-24(fp)
static ALT_INLINE alt_irq_context ALT_ALWAYS_INLINE 
       alt_irq_disable_all (void)
{
  alt_irq_context context;

  NIOS2_READ_STATUS (context);
  803590:	0005303a 	rdctl	r2,status
  803594:	e0bffb15 	stw	r2,-20(fp)

  NIOS2_WRITE_STATUS (context & ~NIOS2_STATUS_PIE_MSK);
  803598:	e0fffb17 	ldw	r3,-20(fp)
  80359c:	00bfff84 	movi	r2,-2
  8035a0:	1884703a 	and	r2,r3,r2
  8035a4:	1001703a 	wrctl	status,r2
  
  return context;
  8035a8:	e0bffb17 	ldw	r2,-20(fp)
static ALT_INLINE int ALT_ALWAYS_INLINE alt_irq_disable (alt_u32 id)
{
  alt_irq_context  status;
  extern volatile alt_u32 alt_irq_active;

  status = alt_irq_disable_all ();
  8035ac:	e0bffc15 	stw	r2,-16(fp)

  alt_irq_active &= ~(1 << id);
  8035b0:	00c00044 	movi	r3,1
  8035b4:	e0bffa17 	ldw	r2,-24(fp)
  8035b8:	1884983a 	sll	r2,r3,r2
  8035bc:	0084303a 	nor	r2,zero,r2
  8035c0:	1007883a 	mov	r3,r2
  8035c4:	00802034 	movhi	r2,128
  8035c8:	1092ec04 	addi	r2,r2,19376
  8035cc:	10800017 	ldw	r2,0(r2)
  8035d0:	1886703a 	and	r3,r3,r2
  8035d4:	00802034 	movhi	r2,128
  8035d8:	1092ec04 	addi	r2,r2,19376
  8035dc:	10c00015 	stw	r3,0(r2)
  NIOS2_WRITE_IENABLE (alt_irq_active);
  8035e0:	00802034 	movhi	r2,128
  8035e4:	1092ec04 	addi	r2,r2,19376
  8035e8:	10800017 	ldw	r2,0(r2)
  8035ec:	100170fa 	wrctl	ienable,r2
  8035f0:	e0bffc17 	ldw	r2,-16(fp)
  8035f4:	e0bffd15 	stw	r2,-12(fp)
  status &= ~NIOS2_STATUS_PIE_MSK;
  status |= (context & NIOS2_STATUS_PIE_MSK);
  
  NIOS2_WRITE_STATUS (status);
#else
  NIOS2_WRITE_STATUS (context);
  8035f8:	e0bffd17 	ldw	r2,-12(fp)
  8035fc:	1001703a 	wrctl	status,r2

  alt_irq_enable_all(status);

  return 0;
  803600:	0005883a 	mov	r2,zero
    return alt_irq_disable(irq);
  803604:	0001883a 	nop
}
  803608:	e037883a 	mov	sp,fp
  80360c:	df000017 	ldw	fp,0(sp)
  803610:	dec00104 	addi	sp,sp,4
  803614:	f800283a 	ret

00803618 <alt_ic_irq_enabled>:
  * @param irq              IRQ number
  * @return                 Zero if corresponding interrupt is disabled and
  *                         non-zero otherwise.
  */
alt_u32 alt_ic_irq_enabled(alt_u32 ic_id, alt_u32 irq)
{
  803618:	defffc04 	addi	sp,sp,-16
  80361c:	df000315 	stw	fp,12(sp)
  803620:	df000304 	addi	fp,sp,12
  803624:	e13ffe15 	stw	r4,-8(fp)
  803628:	e17fff15 	stw	r5,-4(fp)
    alt_u32 irq_enabled;

    NIOS2_READ_IENABLE(irq_enabled);
  80362c:	000530fa 	rdctl	r2,ienable
  803630:	e0bffd15 	stw	r2,-12(fp)

    return (irq_enabled & (1 << irq)) ? 1: 0;
  803634:	00c00044 	movi	r3,1
  803638:	e0bfff17 	ldw	r2,-4(fp)
  80363c:	1884983a 	sll	r2,r3,r2
  803640:	1007883a 	mov	r3,r2
  803644:	e0bffd17 	ldw	r2,-12(fp)
  803648:	1884703a 	and	r2,r3,r2
  80364c:	1004c03a 	cmpne	r2,r2,zero
  803650:	10803fcc 	andi	r2,r2,255
}
  803654:	e037883a 	mov	sp,fp
  803658:	df000017 	ldw	fp,0(sp)
  80365c:	dec00104 	addi	sp,sp,4
  803660:	f800283a 	ret

00803664 <alt_iic_isr_register>:
  * @param flags            
  * @return                 0 if successful, else error (-1)
  */
int alt_iic_isr_register(alt_u32 ic_id, alt_u32 irq, alt_isr_func isr, 
  void *isr_context, void *flags)
{
  803664:	defff504 	addi	sp,sp,-44
  803668:	dfc00a15 	stw	ra,40(sp)
  80366c:	df000915 	stw	fp,36(sp)
  803670:	df000904 	addi	fp,sp,36
  803674:	e13ffc15 	stw	r4,-16(fp)
  803678:	e17ffd15 	stw	r5,-12(fp)
  80367c:	e1bffe15 	stw	r6,-8(fp)
  803680:	e1ffff15 	stw	r7,-4(fp)
  int rc = -EINVAL;  
  803684:	00bffa84 	movi	r2,-22
  803688:	e0bff715 	stw	r2,-36(fp)
  int id = irq;             /* IRQ interpreted as the interrupt ID. */
  80368c:	e0bffd17 	ldw	r2,-12(fp)
  803690:	e0bff815 	stw	r2,-32(fp)
  alt_irq_context status;

  if (id < ALT_NIRQ)
  803694:	e0bff817 	ldw	r2,-32(fp)
  803698:	10800808 	cmpgei	r2,r2,32
  80369c:	1000271e 	bne	r2,zero,80373c <alt_iic_isr_register+0xd8>
static ALT_INLINE alt_irq_context ALT_ALWAYS_INLINE 
       alt_irq_disable_all (void)
{
  alt_irq_context context;

  NIOS2_READ_STATUS (context);
  8036a0:	0005303a 	rdctl	r2,status
  8036a4:	e0bffb15 	stw	r2,-20(fp)

  NIOS2_WRITE_STATUS (context & ~NIOS2_STATUS_PIE_MSK);
  8036a8:	e0fffb17 	ldw	r3,-20(fp)
  8036ac:	00bfff84 	movi	r2,-2
  8036b0:	1884703a 	and	r2,r3,r2
  8036b4:	1001703a 	wrctl	status,r2
  
  return context;
  8036b8:	e0bffb17 	ldw	r2,-20(fp)
     * interrupts are disabled while the handler tables are updated to ensure
     * that an interrupt doesn't occur while the tables are in an inconsistant
     * state.
     */

    status = alt_irq_disable_all();
  8036bc:	e0bffa15 	stw	r2,-24(fp)

    alt_irq[id].handler = isr;
  8036c0:	00802034 	movhi	r2,128
  8036c4:	10938e04 	addi	r2,r2,20024
  8036c8:	e0fff817 	ldw	r3,-32(fp)
  8036cc:	180690fa 	slli	r3,r3,3
  8036d0:	10c5883a 	add	r2,r2,r3
  8036d4:	e0fffe17 	ldw	r3,-8(fp)
  8036d8:	10c00015 	stw	r3,0(r2)
    alt_irq[id].context = isr_context;
  8036dc:	00802034 	movhi	r2,128
  8036e0:	10938e04 	addi	r2,r2,20024
  8036e4:	e0fff817 	ldw	r3,-32(fp)
  8036e8:	180690fa 	slli	r3,r3,3
  8036ec:	10c5883a 	add	r2,r2,r3
  8036f0:	10800104 	addi	r2,r2,4
  8036f4:	e0ffff17 	ldw	r3,-4(fp)
  8036f8:	10c00015 	stw	r3,0(r2)

    rc = (isr) ? alt_ic_irq_enable(ic_id, id) : alt_ic_irq_disable(ic_id, id);
  8036fc:	e0bffe17 	ldw	r2,-8(fp)
  803700:	10000526 	beq	r2,zero,803718 <alt_iic_isr_register+0xb4>
  803704:	e0bff817 	ldw	r2,-32(fp)
  803708:	100b883a 	mov	r5,r2
  80370c:	e13ffc17 	ldw	r4,-16(fp)
  803710:	08034d40 	call	8034d4 <alt_ic_irq_enable>
  803714:	00000406 	br	803728 <alt_iic_isr_register+0xc4>
  803718:	e0bff817 	ldw	r2,-32(fp)
  80371c:	100b883a 	mov	r5,r2
  803720:	e13ffc17 	ldw	r4,-16(fp)
  803724:	08035740 	call	803574 <alt_ic_irq_disable>
  803728:	e0bff715 	stw	r2,-36(fp)
  80372c:	e0bffa17 	ldw	r2,-24(fp)
  803730:	e0bff915 	stw	r2,-28(fp)
  status &= ~NIOS2_STATUS_PIE_MSK;
  status |= (context & NIOS2_STATUS_PIE_MSK);
  
  NIOS2_WRITE_STATUS (status);
#else
  NIOS2_WRITE_STATUS (context);
  803734:	e0bff917 	ldw	r2,-28(fp)
  803738:	1001703a 	wrctl	status,r2

    alt_irq_enable_all(status);
  }

  return rc; 
  80373c:	e0bff717 	ldw	r2,-36(fp)
}
  803740:	e037883a 	mov	sp,fp
  803744:	dfc00117 	ldw	ra,4(sp)
  803748:	df000017 	ldw	fp,0(sp)
  80374c:	dec00204 	addi	sp,sp,8
  803750:	f800283a 	ret

00803754 <alt_open_fd>:
 * If the device can not be succesfully opened, then the input file descriptor
 * remains unchanged.
 */

static void alt_open_fd(alt_fd* fd, const char* name, int flags, int mode)
{
  803754:	defff804 	addi	sp,sp,-32
  803758:	dfc00715 	stw	ra,28(sp)
  80375c:	df000615 	stw	fp,24(sp)
  803760:	dc000515 	stw	r16,20(sp)
  803764:	df000604 	addi	fp,sp,24
  803768:	e13ffb15 	stw	r4,-20(fp)
  80376c:	e17ffc15 	stw	r5,-16(fp)
  803770:	e1bffd15 	stw	r6,-12(fp)
  803774:	e1fffe15 	stw	r7,-8(fp)
  int old;

  old = open (name, flags, mode);
  803778:	e1bffe17 	ldw	r6,-8(fp)
  80377c:	e17ffd17 	ldw	r5,-12(fp)
  803780:	e13ffc17 	ldw	r4,-16(fp)
  803784:	08039f80 	call	8039f8 <open>
  803788:	e0bffa15 	stw	r2,-24(fp)

  if (old >= 0)
  80378c:	e0bffa17 	ldw	r2,-24(fp)
  803790:	10002216 	blt	r2,zero,80381c <alt_open_fd+0xc8>
  {
    fd->dev      = alt_fd_list[old].dev;
  803794:	04002034 	movhi	r16,128
  803798:	84117c04 	addi	r16,r16,17904
  80379c:	e0bffa17 	ldw	r2,-24(fp)
  8037a0:	01400304 	movi	r5,12
  8037a4:	1009883a 	mov	r4,r2
  8037a8:	08024b40 	call	8024b4 <__mulsi3>
  8037ac:	8085883a 	add	r2,r16,r2
  8037b0:	10c00017 	ldw	r3,0(r2)
  8037b4:	e0bffb17 	ldw	r2,-20(fp)
  8037b8:	10c00015 	stw	r3,0(r2)
    fd->priv     = alt_fd_list[old].priv;
  8037bc:	04002034 	movhi	r16,128
  8037c0:	84117c04 	addi	r16,r16,17904
  8037c4:	e0bffa17 	ldw	r2,-24(fp)
  8037c8:	01400304 	movi	r5,12
  8037cc:	1009883a 	mov	r4,r2
  8037d0:	08024b40 	call	8024b4 <__mulsi3>
  8037d4:	8085883a 	add	r2,r16,r2
  8037d8:	10800104 	addi	r2,r2,4
  8037dc:	10c00017 	ldw	r3,0(r2)
  8037e0:	e0bffb17 	ldw	r2,-20(fp)
  8037e4:	10c00115 	stw	r3,4(r2)
    fd->fd_flags = alt_fd_list[old].fd_flags;
  8037e8:	04002034 	movhi	r16,128
  8037ec:	84117c04 	addi	r16,r16,17904
  8037f0:	e0bffa17 	ldw	r2,-24(fp)
  8037f4:	01400304 	movi	r5,12
  8037f8:	1009883a 	mov	r4,r2
  8037fc:	08024b40 	call	8024b4 <__mulsi3>
  803800:	8085883a 	add	r2,r16,r2
  803804:	10800204 	addi	r2,r2,8
  803808:	10c00017 	ldw	r3,0(r2)
  80380c:	e0bffb17 	ldw	r2,-20(fp)
  803810:	10c00215 	stw	r3,8(r2)

    alt_release_fd (old);
  803814:	e13ffa17 	ldw	r4,-24(fp)
  803818:	0803b580 	call	803b58 <alt_release_fd>
  }
} 
  80381c:	0001883a 	nop
  803820:	e6ffff04 	addi	sp,fp,-4
  803824:	dfc00217 	ldw	ra,8(sp)
  803828:	df000117 	ldw	fp,4(sp)
  80382c:	dc000017 	ldw	r16,0(sp)
  803830:	dec00304 	addi	sp,sp,12
  803834:	f800283a 	ret

00803838 <alt_io_redirect>:
 */
 
void alt_io_redirect(const char* stdout_dev, 
                     const char* stdin_dev, 
                     const char* stderr_dev)
{
  803838:	defffb04 	addi	sp,sp,-20
  80383c:	dfc00415 	stw	ra,16(sp)
  803840:	df000315 	stw	fp,12(sp)
  803844:	df000304 	addi	fp,sp,12
  803848:	e13ffd15 	stw	r4,-12(fp)
  80384c:	e17ffe15 	stw	r5,-8(fp)
  803850:	e1bfff15 	stw	r6,-4(fp)
  /* Redirect the channels */

  alt_open_fd (&alt_fd_list[STDOUT_FILENO], stdout_dev, O_WRONLY, 0777);
  803854:	01c07fc4 	movi	r7,511
  803858:	01800044 	movi	r6,1
  80385c:	e17ffd17 	ldw	r5,-12(fp)
  803860:	01002034 	movhi	r4,128
  803864:	21117f04 	addi	r4,r4,17916
  803868:	08037540 	call	803754 <alt_open_fd>
  alt_open_fd (&alt_fd_list[STDIN_FILENO], stdin_dev, O_RDONLY, 0777);
  80386c:	01c07fc4 	movi	r7,511
  803870:	000d883a 	mov	r6,zero
  803874:	e17ffe17 	ldw	r5,-8(fp)
  803878:	01002034 	movhi	r4,128
  80387c:	21117c04 	addi	r4,r4,17904
  803880:	08037540 	call	803754 <alt_open_fd>
  alt_open_fd (&alt_fd_list[STDERR_FILENO], stderr_dev, O_WRONLY, 0777);
  803884:	01c07fc4 	movi	r7,511
  803888:	01800044 	movi	r6,1
  80388c:	e17fff17 	ldw	r5,-4(fp)
  803890:	01002034 	movhi	r4,128
  803894:	21118204 	addi	r4,r4,17928
  803898:	08037540 	call	803754 <alt_open_fd>
}  
  80389c:	0001883a 	nop
  8038a0:	e037883a 	mov	sp,fp
  8038a4:	dfc00117 	ldw	ra,4(sp)
  8038a8:	df000017 	ldw	fp,0(sp)
  8038ac:	dec00204 	addi	sp,sp,8
  8038b0:	f800283a 	ret

008038b4 <alt_get_errno>:
#undef errno

extern int errno;

static ALT_INLINE int* alt_get_errno(void)
{
  8038b4:	defffe04 	addi	sp,sp,-8
  8038b8:	dfc00115 	stw	ra,4(sp)
  8038bc:	df000015 	stw	fp,0(sp)
  8038c0:	d839883a 	mov	fp,sp
  return ((alt_errno) ? alt_errno() : &errno);
  8038c4:	00802034 	movhi	r2,128
  8038c8:	10921b04 	addi	r2,r2,18540
  8038cc:	10800017 	ldw	r2,0(r2)
  8038d0:	10000526 	beq	r2,zero,8038e8 <alt_get_errno+0x34>
  8038d4:	00802034 	movhi	r2,128
  8038d8:	10921b04 	addi	r2,r2,18540
  8038dc:	10800017 	ldw	r2,0(r2)
  8038e0:	103ee83a 	callr	r2
  8038e4:	00000206 	br	8038f0 <alt_get_errno+0x3c>
  8038e8:	00802034 	movhi	r2,128
  8038ec:	1092ee04 	addi	r2,r2,19384
}
  8038f0:	e037883a 	mov	sp,fp
  8038f4:	dfc00117 	ldw	ra,4(sp)
  8038f8:	df000017 	ldw	fp,0(sp)
  8038fc:	dec00204 	addi	sp,sp,8
  803900:	f800283a 	ret

00803904 <alt_file_locked>:
 * performed for devices. Filesystems are required to handle the ioctl() call
 * themselves, and report the error from the filesystems open() function. 
 */ 

static int alt_file_locked (alt_fd* fd)
{
  803904:	defffb04 	addi	sp,sp,-20
  803908:	dfc00415 	stw	ra,16(sp)
  80390c:	df000315 	stw	fp,12(sp)
  803910:	dc000215 	stw	r16,8(sp)
  803914:	df000304 	addi	fp,sp,12
  803918:	e13ffe15 	stw	r4,-8(fp)

  /*
   * Mark the file descriptor as belonging to a device.
   */

  fd->fd_flags |= ALT_FD_DEV;
  80391c:	e0bffe17 	ldw	r2,-8(fp)
  803920:	10800217 	ldw	r2,8(r2)
  803924:	10d00034 	orhi	r3,r2,16384
  803928:	e0bffe17 	ldw	r2,-8(fp)
  80392c:	10c00215 	stw	r3,8(r2)
  /*
   * Loop through all current file descriptors searching for one that's locked
   * for exclusive access. If a match is found, generate an error.
   */

  for (i = 0; i <= alt_max_fd; i++)
  803930:	e03ffd15 	stw	zero,-12(fp)
  803934:	00002306 	br	8039c4 <alt_file_locked+0xc0>
  {
    if ((alt_fd_list[i].dev == fd->dev) &&
  803938:	04002034 	movhi	r16,128
  80393c:	84117c04 	addi	r16,r16,17904
  803940:	e0bffd17 	ldw	r2,-12(fp)
  803944:	01400304 	movi	r5,12
  803948:	1009883a 	mov	r4,r2
  80394c:	08024b40 	call	8024b4 <__mulsi3>
  803950:	8085883a 	add	r2,r16,r2
  803954:	10c00017 	ldw	r3,0(r2)
  803958:	e0bffe17 	ldw	r2,-8(fp)
  80395c:	10800017 	ldw	r2,0(r2)
  803960:	1880151e 	bne	r3,r2,8039b8 <alt_file_locked+0xb4>
        (alt_fd_list[i].fd_flags & ALT_FD_EXCL) &&
  803964:	04002034 	movhi	r16,128
  803968:	84117c04 	addi	r16,r16,17904
  80396c:	e0bffd17 	ldw	r2,-12(fp)
  803970:	01400304 	movi	r5,12
  803974:	1009883a 	mov	r4,r2
  803978:	08024b40 	call	8024b4 <__mulsi3>
  80397c:	8085883a 	add	r2,r16,r2
  803980:	10800204 	addi	r2,r2,8
  803984:	10800017 	ldw	r2,0(r2)
   * for exclusive access. If a match is found, generate an error.
   */

  for (i = 0; i <= alt_max_fd; i++)
  {
    if ((alt_fd_list[i].dev == fd->dev) &&
  803988:	10000b0e 	bge	r2,zero,8039b8 <alt_file_locked+0xb4>
        (alt_fd_list[i].fd_flags & ALT_FD_EXCL) &&
        (&alt_fd_list[i] != fd))
  80398c:	01400304 	movi	r5,12
  803990:	e13ffd17 	ldw	r4,-12(fp)
  803994:	08024b40 	call	8024b4 <__mulsi3>
  803998:	1007883a 	mov	r3,r2
  80399c:	00802034 	movhi	r2,128
  8039a0:	10917c04 	addi	r2,r2,17904
  8039a4:	1887883a 	add	r3,r3,r2
   */

  for (i = 0; i <= alt_max_fd; i++)
  {
    if ((alt_fd_list[i].dev == fd->dev) &&
        (alt_fd_list[i].fd_flags & ALT_FD_EXCL) &&
  8039a8:	e0bffe17 	ldw	r2,-8(fp)
  8039ac:	18800226 	beq	r3,r2,8039b8 <alt_file_locked+0xb4>
        (&alt_fd_list[i] != fd))
    {
      return -EACCES;
  8039b0:	00bffcc4 	movi	r2,-13
  8039b4:	00000a06 	br	8039e0 <alt_file_locked+0xdc>
  /*
   * Loop through all current file descriptors searching for one that's locked
   * for exclusive access. If a match is found, generate an error.
   */

  for (i = 0; i <= alt_max_fd; i++)
  8039b8:	e0bffd17 	ldw	r2,-12(fp)
  8039bc:	10800044 	addi	r2,r2,1
  8039c0:	e0bffd15 	stw	r2,-12(fp)
  8039c4:	00802034 	movhi	r2,128
  8039c8:	10921a04 	addi	r2,r2,18536
  8039cc:	10800017 	ldw	r2,0(r2)
  8039d0:	1007883a 	mov	r3,r2
  8039d4:	e0bffd17 	ldw	r2,-12(fp)
  8039d8:	18bfd72e 	bgeu	r3,r2,803938 <__alt_data_end+0xff803938>
    }
  }
  
  /* The device is not locked */
 
  return 0;
  8039dc:	0005883a 	mov	r2,zero
}
  8039e0:	e6ffff04 	addi	sp,fp,-4
  8039e4:	dfc00217 	ldw	ra,8(sp)
  8039e8:	df000117 	ldw	fp,4(sp)
  8039ec:	dc000017 	ldw	r16,0(sp)
  8039f0:	dec00304 	addi	sp,sp,12
  8039f4:	f800283a 	ret

008039f8 <open>:
 *
 * ALT_OPEN is mapped onto the open() system call in alt_syscall.h
 */
 
int ALT_OPEN (const char* file, int flags, int mode)
{ 
  8039f8:	defff604 	addi	sp,sp,-40
  8039fc:	dfc00915 	stw	ra,36(sp)
  803a00:	df000815 	stw	fp,32(sp)
  803a04:	df000804 	addi	fp,sp,32
  803a08:	e13ffd15 	stw	r4,-12(fp)
  803a0c:	e17ffe15 	stw	r5,-8(fp)
  803a10:	e1bfff15 	stw	r6,-4(fp)
  alt_dev* dev;
  alt_fd*  fd;
  int index  = -1;
  803a14:	00bfffc4 	movi	r2,-1
  803a18:	e0bff915 	stw	r2,-28(fp)
  int status = -ENODEV;
  803a1c:	00bffb44 	movi	r2,-19
  803a20:	e0bffa15 	stw	r2,-24(fp)
  int isafs = 0;
  803a24:	e03ffb15 	stw	zero,-20(fp)
  /* 
   * Check the device list, to see if a device with a matching name is 
   * registered.
   */
  
  if (!(dev = alt_find_dev (file, &alt_dev_list)))
  803a28:	01402034 	movhi	r5,128
  803a2c:	29521804 	addi	r5,r5,18528
  803a30:	e13ffd17 	ldw	r4,-12(fp)
  803a34:	08033d40 	call	8033d4 <alt_find_dev>
  803a38:	e0bff815 	stw	r2,-32(fp)
  803a3c:	e0bff817 	ldw	r2,-32(fp)
  803a40:	1000051e 	bne	r2,zero,803a58 <open+0x60>
  {
    /* No matching device, so try the filesystem list */

    dev   = alt_find_file (file);
  803a44:	e13ffd17 	ldw	r4,-12(fp)
  803a48:	0803c000 	call	803c00 <alt_find_file>
  803a4c:	e0bff815 	stw	r2,-32(fp)
    isafs = 1;
  803a50:	00800044 	movi	r2,1
  803a54:	e0bffb15 	stw	r2,-20(fp)

  /* 
   * If a matching device or filesystem is found, allocate a file descriptor. 
   */

  if (dev)
  803a58:	e0bff817 	ldw	r2,-32(fp)
  803a5c:	10002b26 	beq	r2,zero,803b0c <open+0x114>
  {
    if ((index = alt_get_fd (dev)) < 0)
  803a60:	e13ff817 	ldw	r4,-32(fp)
  803a64:	0803d140 	call	803d14 <alt_get_fd>
  803a68:	e0bff915 	stw	r2,-28(fp)
  803a6c:	e0bff917 	ldw	r2,-28(fp)
  803a70:	1000030e 	bge	r2,zero,803a80 <open+0x88>
    {
      status = index;
  803a74:	e0bff917 	ldw	r2,-28(fp)
  803a78:	e0bffa15 	stw	r2,-24(fp)
  803a7c:	00002506 	br	803b14 <open+0x11c>
    }
    else
    {
      fd = &alt_fd_list[index];
  803a80:	01400304 	movi	r5,12
  803a84:	e13ff917 	ldw	r4,-28(fp)
  803a88:	08024b40 	call	8024b4 <__mulsi3>
  803a8c:	1007883a 	mov	r3,r2
  803a90:	00802034 	movhi	r2,128
  803a94:	10917c04 	addi	r2,r2,17904
  803a98:	1885883a 	add	r2,r3,r2
  803a9c:	e0bffc15 	stw	r2,-16(fp)
      fd->fd_flags = (flags & ~ALT_FD_FLAGS_MASK);
  803aa0:	e0fffe17 	ldw	r3,-8(fp)
  803aa4:	00900034 	movhi	r2,16384
  803aa8:	10bfffc4 	addi	r2,r2,-1
  803aac:	1886703a 	and	r3,r3,r2
  803ab0:	e0bffc17 	ldw	r2,-16(fp)
  803ab4:	10c00215 	stw	r3,8(r2)
      
      /* If this is a device, ensure it isn't already locked */

      if (isafs || ((status = alt_file_locked (fd)) >= 0))
  803ab8:	e0bffb17 	ldw	r2,-20(fp)
  803abc:	1000051e 	bne	r2,zero,803ad4 <open+0xdc>
  803ac0:	e13ffc17 	ldw	r4,-16(fp)
  803ac4:	08039040 	call	803904 <alt_file_locked>
  803ac8:	e0bffa15 	stw	r2,-24(fp)
  803acc:	e0bffa17 	ldw	r2,-24(fp)
  803ad0:	10001016 	blt	r2,zero,803b14 <open+0x11c>
        /* 
         * If the device or filesystem provides an open() callback function,
         * call it now to perform any device/filesystem specific operations.
         */
    
        status = (dev->open) ? dev->open(fd, file, flags, mode): 0;
  803ad4:	e0bff817 	ldw	r2,-32(fp)
  803ad8:	10800317 	ldw	r2,12(r2)
  803adc:	10000826 	beq	r2,zero,803b00 <open+0x108>
  803ae0:	e0bff817 	ldw	r2,-32(fp)
  803ae4:	10800317 	ldw	r2,12(r2)
  803ae8:	e1ffff17 	ldw	r7,-4(fp)
  803aec:	e1bffe17 	ldw	r6,-8(fp)
  803af0:	e17ffd17 	ldw	r5,-12(fp)
  803af4:	e13ffc17 	ldw	r4,-16(fp)
  803af8:	103ee83a 	callr	r2
  803afc:	00000106 	br	803b04 <open+0x10c>
  803b00:	0005883a 	mov	r2,zero
  803b04:	e0bffa15 	stw	r2,-24(fp)
  803b08:	00000206 	br	803b14 <open+0x11c>
      }
    }
  }
  else
  {
    status = -ENODEV;
  803b0c:	00bffb44 	movi	r2,-19
  803b10:	e0bffa15 	stw	r2,-24(fp)
  }

  /* Allocation failed, so clean up and return an error */ 

  if (status < 0)
  803b14:	e0bffa17 	ldw	r2,-24(fp)
  803b18:	1000090e 	bge	r2,zero,803b40 <open+0x148>
  {
    alt_release_fd (index);  
  803b1c:	e13ff917 	ldw	r4,-28(fp)
  803b20:	0803b580 	call	803b58 <alt_release_fd>
    ALT_ERRNO = -status;
  803b24:	08038b40 	call	8038b4 <alt_get_errno>
  803b28:	1007883a 	mov	r3,r2
  803b2c:	e0bffa17 	ldw	r2,-24(fp)
  803b30:	0085c83a 	sub	r2,zero,r2
  803b34:	18800015 	stw	r2,0(r3)
    return -1;
  803b38:	00bfffc4 	movi	r2,-1
  803b3c:	00000106 	br	803b44 <open+0x14c>
  }
  
  /* return the reference upon success */

  return index;
  803b40:	e0bff917 	ldw	r2,-28(fp)
}
  803b44:	e037883a 	mov	sp,fp
  803b48:	dfc00117 	ldw	ra,4(sp)
  803b4c:	df000017 	ldw	fp,0(sp)
  803b50:	dec00204 	addi	sp,sp,8
  803b54:	f800283a 	ret

00803b58 <alt_release_fd>:
 * File descriptors correcponding to standard in, standard out and standard 
 * error cannont be released backed to the pool. They are always reserved.
 */

void alt_release_fd (int fd)
{
  803b58:	defffc04 	addi	sp,sp,-16
  803b5c:	dfc00315 	stw	ra,12(sp)
  803b60:	df000215 	stw	fp,8(sp)
  803b64:	dc000115 	stw	r16,4(sp)
  803b68:	df000204 	addi	fp,sp,8
  803b6c:	e13ffe15 	stw	r4,-8(fp)
  if (fd > 2)
  803b70:	e0bffe17 	ldw	r2,-8(fp)
  803b74:	108000d0 	cmplti	r2,r2,3
  803b78:	1000111e 	bne	r2,zero,803bc0 <alt_release_fd+0x68>
  {
    alt_fd_list[fd].fd_flags = 0;
  803b7c:	04002034 	movhi	r16,128
  803b80:	84117c04 	addi	r16,r16,17904
  803b84:	e0bffe17 	ldw	r2,-8(fp)
  803b88:	01400304 	movi	r5,12
  803b8c:	1009883a 	mov	r4,r2
  803b90:	08024b40 	call	8024b4 <__mulsi3>
  803b94:	8085883a 	add	r2,r16,r2
  803b98:	10800204 	addi	r2,r2,8
  803b9c:	10000015 	stw	zero,0(r2)
    alt_fd_list[fd].dev      = 0;
  803ba0:	04002034 	movhi	r16,128
  803ba4:	84117c04 	addi	r16,r16,17904
  803ba8:	e0bffe17 	ldw	r2,-8(fp)
  803bac:	01400304 	movi	r5,12
  803bb0:	1009883a 	mov	r4,r2
  803bb4:	08024b40 	call	8024b4 <__mulsi3>
  803bb8:	8085883a 	add	r2,r16,r2
  803bbc:	10000015 	stw	zero,0(r2)
  }
}
  803bc0:	0001883a 	nop
  803bc4:	e6ffff04 	addi	sp,fp,-4
  803bc8:	dfc00217 	ldw	ra,8(sp)
  803bcc:	df000117 	ldw	fp,4(sp)
  803bd0:	dc000017 	ldw	r16,0(sp)
  803bd4:	dec00304 	addi	sp,sp,12
  803bd8:	f800283a 	ret

00803bdc <altera_nios2_gen2_irq_init>:
/*
 * To initialize the internal interrupt controller, just clear the IENABLE
 * register so that all possible IRQs are disabled.
 */
void altera_nios2_gen2_irq_init(void) 
{
  803bdc:	deffff04 	addi	sp,sp,-4
  803be0:	df000015 	stw	fp,0(sp)
  803be4:	d839883a 	mov	fp,sp
    NIOS2_WRITE_IENABLE(0);
  803be8:	000170fa 	wrctl	ienable,zero
}
  803bec:	0001883a 	nop
  803bf0:	e037883a 	mov	sp,fp
  803bf4:	df000017 	ldw	fp,0(sp)
  803bf8:	dec00104 	addi	sp,sp,4
  803bfc:	f800283a 	ret

00803c00 <alt_find_file>:
 * either '/' or '\0' is the prefix of the filename. For example the filename:
 * "/myfilesystem/junk.txt" would match: "/myfilesystem", but not: "/myfile". 
 */
 
alt_dev* alt_find_file (const char* name)
{
  803c00:	defffb04 	addi	sp,sp,-20
  803c04:	dfc00415 	stw	ra,16(sp)
  803c08:	df000315 	stw	fp,12(sp)
  803c0c:	df000304 	addi	fp,sp,12
  803c10:	e13fff15 	stw	r4,-4(fp)
  alt_dev* next = (alt_dev*) alt_fs_list.next;   
  803c14:	00802034 	movhi	r2,128
  803c18:	10921604 	addi	r2,r2,18520
  803c1c:	10800017 	ldw	r2,0(r2)
  803c20:	e0bffd15 	stw	r2,-12(fp)
  /*
   * Check each list entry in turn, until a match is found, or we reach the
   * end of the list (i.e. next winds up pointing back to the list head).
   */ 
 
  while (next != (alt_dev*) &alt_fs_list)
  803c24:	00003106 	br	803cec <alt_find_file+0xec>
  {
    len = strlen(next->name);
  803c28:	e0bffd17 	ldw	r2,-12(fp)
  803c2c:	10800217 	ldw	r2,8(r2)
  803c30:	1009883a 	mov	r4,r2
  803c34:	08025940 	call	802594 <strlen>
  803c38:	e0bffe15 	stw	r2,-8(fp)
    
    if (next->name[len-1] == '/')
  803c3c:	e0bffd17 	ldw	r2,-12(fp)
  803c40:	10c00217 	ldw	r3,8(r2)
  803c44:	e0bffe17 	ldw	r2,-8(fp)
  803c48:	10bfffc4 	addi	r2,r2,-1
  803c4c:	1885883a 	add	r2,r3,r2
  803c50:	10800003 	ldbu	r2,0(r2)
  803c54:	10803fcc 	andi	r2,r2,255
  803c58:	1080201c 	xori	r2,r2,128
  803c5c:	10bfe004 	addi	r2,r2,-128
  803c60:	10800bd8 	cmpnei	r2,r2,47
  803c64:	1000031e 	bne	r2,zero,803c74 <alt_find_file+0x74>
    {
      len -= 1;
  803c68:	e0bffe17 	ldw	r2,-8(fp)
  803c6c:	10bfffc4 	addi	r2,r2,-1
  803c70:	e0bffe15 	stw	r2,-8(fp)
    }

    if (((name[len] == '/') || (name[len] == '\0')) && 
  803c74:	e0bffe17 	ldw	r2,-8(fp)
  803c78:	e0ffff17 	ldw	r3,-4(fp)
  803c7c:	1885883a 	add	r2,r3,r2
  803c80:	10800003 	ldbu	r2,0(r2)
  803c84:	10803fcc 	andi	r2,r2,255
  803c88:	1080201c 	xori	r2,r2,128
  803c8c:	10bfe004 	addi	r2,r2,-128
  803c90:	10800be0 	cmpeqi	r2,r2,47
  803c94:	1000081e 	bne	r2,zero,803cb8 <alt_find_file+0xb8>
  803c98:	e0bffe17 	ldw	r2,-8(fp)
  803c9c:	e0ffff17 	ldw	r3,-4(fp)
  803ca0:	1885883a 	add	r2,r3,r2
  803ca4:	10800003 	ldbu	r2,0(r2)
  803ca8:	10803fcc 	andi	r2,r2,255
  803cac:	1080201c 	xori	r2,r2,128
  803cb0:	10bfe004 	addi	r2,r2,-128
  803cb4:	10000a1e 	bne	r2,zero,803ce0 <alt_find_file+0xe0>
        !memcmp (next->name, name, len))
  803cb8:	e0bffd17 	ldw	r2,-12(fp)
  803cbc:	10800217 	ldw	r2,8(r2)
  803cc0:	e0fffe17 	ldw	r3,-8(fp)
  803cc4:	180d883a 	mov	r6,r3
  803cc8:	e17fff17 	ldw	r5,-4(fp)
  803ccc:	1009883a 	mov	r4,r2
  803cd0:	0803ea40 	call	803ea4 <memcmp>
    if (next->name[len-1] == '/')
    {
      len -= 1;
    }

    if (((name[len] == '/') || (name[len] == '\0')) && 
  803cd4:	1000021e 	bne	r2,zero,803ce0 <alt_find_file+0xe0>
        !memcmp (next->name, name, len))
    {
      /* match found */

      return next;
  803cd8:	e0bffd17 	ldw	r2,-12(fp)
  803cdc:	00000806 	br	803d00 <alt_find_file+0x100>
    }
    next = (alt_dev*) next->llist.next;
  803ce0:	e0bffd17 	ldw	r2,-12(fp)
  803ce4:	10800017 	ldw	r2,0(r2)
  803ce8:	e0bffd15 	stw	r2,-12(fp)
  /*
   * Check each list entry in turn, until a match is found, or we reach the
   * end of the list (i.e. next winds up pointing back to the list head).
   */ 
 
  while (next != (alt_dev*) &alt_fs_list)
  803cec:	e0fffd17 	ldw	r3,-12(fp)
  803cf0:	00802034 	movhi	r2,128
  803cf4:	10921604 	addi	r2,r2,18520
  803cf8:	18bfcb1e 	bne	r3,r2,803c28 <__alt_data_end+0xff803c28>
    next = (alt_dev*) next->llist.next;
  }
  
  /* No match found */
  
  return NULL;     
  803cfc:	0005883a 	mov	r2,zero
}
  803d00:	e037883a 	mov	sp,fp
  803d04:	dfc00117 	ldw	ra,4(sp)
  803d08:	df000017 	ldw	fp,0(sp)
  803d0c:	dec00204 	addi	sp,sp,8
  803d10:	f800283a 	ret

00803d14 <alt_get_fd>:
 * the offset of the file descriptor within the file descriptor array). A
 * negative value indicates failure.
 */

int alt_get_fd (alt_dev* dev)
{
  803d14:	defffa04 	addi	sp,sp,-24
  803d18:	dfc00515 	stw	ra,20(sp)
  803d1c:	df000415 	stw	fp,16(sp)
  803d20:	dc000315 	stw	r16,12(sp)
  803d24:	df000404 	addi	fp,sp,16
  803d28:	e13ffe15 	stw	r4,-8(fp)
  alt_32 i;
  int rc = -EMFILE;
  803d2c:	00bffa04 	movi	r2,-24
  803d30:	e0bffd15 	stw	r2,-12(fp)
   * indicates the highest file descriptor ever allocated. This is used to
   * improve efficency when searching the file descriptor list, and 
   * therefore reduce contention on the alt_fd_list_lock semaphore. 
   */

  for (i = 0; i < ALT_MAX_FD; i++)
  803d34:	e03ffc15 	stw	zero,-16(fp)
  803d38:	00002106 	br	803dc0 <alt_get_fd+0xac>
  {
    if (!alt_fd_list[i].dev)
  803d3c:	04002034 	movhi	r16,128
  803d40:	84117c04 	addi	r16,r16,17904
  803d44:	e0bffc17 	ldw	r2,-16(fp)
  803d48:	01400304 	movi	r5,12
  803d4c:	1009883a 	mov	r4,r2
  803d50:	08024b40 	call	8024b4 <__mulsi3>
  803d54:	8085883a 	add	r2,r16,r2
  803d58:	10800017 	ldw	r2,0(r2)
  803d5c:	1000151e 	bne	r2,zero,803db4 <alt_get_fd+0xa0>
    {
      alt_fd_list[i].dev = dev;
  803d60:	04002034 	movhi	r16,128
  803d64:	84117c04 	addi	r16,r16,17904
  803d68:	e0bffc17 	ldw	r2,-16(fp)
  803d6c:	01400304 	movi	r5,12
  803d70:	1009883a 	mov	r4,r2
  803d74:	08024b40 	call	8024b4 <__mulsi3>
  803d78:	8085883a 	add	r2,r16,r2
  803d7c:	e0fffe17 	ldw	r3,-8(fp)
  803d80:	10c00015 	stw	r3,0(r2)
      if (i > alt_max_fd)
  803d84:	00802034 	movhi	r2,128
  803d88:	10921a04 	addi	r2,r2,18536
  803d8c:	10c00017 	ldw	r3,0(r2)
  803d90:	e0bffc17 	ldw	r2,-16(fp)
  803d94:	1880040e 	bge	r3,r2,803da8 <alt_get_fd+0x94>
      {
        alt_max_fd = i;
  803d98:	00802034 	movhi	r2,128
  803d9c:	10921a04 	addi	r2,r2,18536
  803da0:	e0fffc17 	ldw	r3,-16(fp)
  803da4:	10c00015 	stw	r3,0(r2)
      }
      rc = i;
  803da8:	e0bffc17 	ldw	r2,-16(fp)
  803dac:	e0bffd15 	stw	r2,-12(fp)
      goto alt_get_fd_exit;
  803db0:	00000606 	br	803dcc <alt_get_fd+0xb8>
   * indicates the highest file descriptor ever allocated. This is used to
   * improve efficency when searching the file descriptor list, and 
   * therefore reduce contention on the alt_fd_list_lock semaphore. 
   */

  for (i = 0; i < ALT_MAX_FD; i++)
  803db4:	e0bffc17 	ldw	r2,-16(fp)
  803db8:	10800044 	addi	r2,r2,1
  803dbc:	e0bffc15 	stw	r2,-16(fp)
  803dc0:	e0bffc17 	ldw	r2,-16(fp)
  803dc4:	10800810 	cmplti	r2,r2,32
  803dc8:	103fdc1e 	bne	r2,zero,803d3c <__alt_data_end+0xff803d3c>
   * file descriptor pool.
   */

  ALT_SEM_POST(alt_fd_list_lock);

  return rc;
  803dcc:	e0bffd17 	ldw	r2,-12(fp)
}
  803dd0:	e6ffff04 	addi	sp,fp,-4
  803dd4:	dfc00217 	ldw	ra,8(sp)
  803dd8:	df000117 	ldw	fp,4(sp)
  803ddc:	dc000017 	ldw	r16,0(sp)
  803de0:	dec00304 	addi	sp,sp,12
  803de4:	f800283a 	ret

00803de8 <alt_exception_cause_generated_bad_addr>:
 * Return: 1: BADADDR (bad_addr argument to handler) is valid
 *         0: BADADDR is not valid
 */
int 
alt_exception_cause_generated_bad_addr(alt_exception_cause cause)
{
  803de8:	defffe04 	addi	sp,sp,-8
  803dec:	df000115 	stw	fp,4(sp)
  803df0:	df000104 	addi	fp,sp,4
  803df4:	e13fff15 	stw	r4,-4(fp)
  switch (cause) {
  803df8:	e0bfff17 	ldw	r2,-4(fp)
  803dfc:	10bffe84 	addi	r2,r2,-6
  803e00:	10c00428 	cmpgeui	r3,r2,16
  803e04:	18001a1e 	bne	r3,zero,803e70 <alt_exception_cause_generated_bad_addr+0x88>
  803e08:	100690ba 	slli	r3,r2,2
  803e0c:	00802034 	movhi	r2,128
  803e10:	108f8804 	addi	r2,r2,15904
  803e14:	1885883a 	add	r2,r3,r2
  803e18:	10800017 	ldw	r2,0(r2)
  803e1c:	1000683a 	jmp	r2
  803e20:	00803e60 	cmpeqi	r2,zero,249
  803e24:	00803e60 	cmpeqi	r2,zero,249
  803e28:	00803e70 	cmpltui	r2,zero,249
  803e2c:	00803e70 	cmpltui	r2,zero,249
  803e30:	00803e70 	cmpltui	r2,zero,249
  803e34:	00803e60 	cmpeqi	r2,zero,249
  803e38:	00803e68 	cmpgeui	r2,zero,249
  803e3c:	00803e70 	cmpltui	r2,zero,249
  803e40:	00803e60 	cmpeqi	r2,zero,249
  803e44:	00803e60 	cmpeqi	r2,zero,249
  803e48:	00803e70 	cmpltui	r2,zero,249
  803e4c:	00803e60 	cmpeqi	r2,zero,249
  803e50:	00803e68 	cmpgeui	r2,zero,249
  803e54:	00803e70 	cmpltui	r2,zero,249
  803e58:	00803e70 	cmpltui	r2,zero,249
  803e5c:	00803e60 	cmpeqi	r2,zero,249
  case NIOS2_EXCEPTION_MISALIGNED_TARGET_PC:
  case NIOS2_EXCEPTION_TLB_READ_PERM_VIOLATION:
  case NIOS2_EXCEPTION_TLB_WRITE_PERM_VIOLATION:
  case NIOS2_EXCEPTION_MPU_DATA_REGION_VIOLATION:
  case NIOS2_EXCEPTION_ECC_DATA_ERR:
    return 1;
  803e60:	00800044 	movi	r2,1
  803e64:	00000306 	br	803e74 <alt_exception_cause_generated_bad_addr+0x8c>

  case NIOS2_EXCEPTION_TLB_MISS:
  case NIOS2_EXCEPTION_ECC_TLB_ERR:
    return 0;
  803e68:	0005883a 	mov	r2,zero
  803e6c:	00000106 	br	803e74 <alt_exception_cause_generated_bad_addr+0x8c>

  default:
    return 0;
  803e70:	0005883a 	mov	r2,zero
  }
}
  803e74:	e037883a 	mov	sp,fp
  803e78:	df000017 	ldw	fp,0(sp)
  803e7c:	dec00104 	addi	sp,sp,4
  803e80:	f800283a 	ret

00803e84 <exit>:
  803e84:	defffe04 	addi	sp,sp,-8
  803e88:	000b883a 	mov	r5,zero
  803e8c:	dc000015 	stw	r16,0(sp)
  803e90:	dfc00115 	stw	ra,4(sp)
  803e94:	2021883a 	mov	r16,r4
  803e98:	0803ed40 	call	803ed4 <__call_exitprocs>
  803e9c:	8009883a 	mov	r4,r16
  803ea0:	08040640 	call	804064 <_exit>

00803ea4 <memcmp>:
  803ea4:	218d883a 	add	r6,r4,r6
  803ea8:	21800826 	beq	r4,r6,803ecc <memcmp+0x28>
  803eac:	20800003 	ldbu	r2,0(r4)
  803eb0:	28c00003 	ldbu	r3,0(r5)
  803eb4:	10c00226 	beq	r2,r3,803ec0 <memcmp+0x1c>
  803eb8:	10c5c83a 	sub	r2,r2,r3
  803ebc:	f800283a 	ret
  803ec0:	21000044 	addi	r4,r4,1
  803ec4:	29400044 	addi	r5,r5,1
  803ec8:	003ff706 	br	803ea8 <__alt_data_end+0xff803ea8>
  803ecc:	0005883a 	mov	r2,zero
  803ed0:	f800283a 	ret

00803ed4 <__call_exitprocs>:
  803ed4:	defff504 	addi	sp,sp,-44
  803ed8:	dd000515 	stw	r20,20(sp)
  803edc:	05002034 	movhi	r20,128
  803ee0:	dc800315 	stw	r18,12(sp)
  803ee4:	dfc00a15 	stw	ra,40(sp)
  803ee8:	df000915 	stw	fp,36(sp)
  803eec:	ddc00815 	stw	r23,32(sp)
  803ef0:	dd800715 	stw	r22,28(sp)
  803ef4:	dd400615 	stw	r21,24(sp)
  803ef8:	dcc00415 	stw	r19,16(sp)
  803efc:	dc400215 	stw	r17,8(sp)
  803f00:	dc000115 	stw	r16,4(sp)
  803f04:	d9000015 	stw	r4,0(sp)
  803f08:	2825883a 	mov	r18,r5
  803f0c:	a5121d04 	addi	r20,r20,18548
  803f10:	a4400017 	ldw	r17,0(r20)
  803f14:	8cc00c17 	ldw	r19,48(r17)
  803f18:	8c400c04 	addi	r17,r17,48
  803f1c:	98004526 	beq	r19,zero,804034 <__call_exitprocs+0x160>
  803f20:	9c000117 	ldw	r16,4(r19)
  803f24:	00900034 	movhi	r2,16384
  803f28:	10bfffc4 	addi	r2,r2,-1
  803f2c:	9d402217 	ldw	r21,136(r19)
  803f30:	85bfffc4 	addi	r22,r16,-1
  803f34:	80a1883a 	add	r16,r16,r2
  803f38:	8421883a 	add	r16,r16,r16
  803f3c:	8421883a 	add	r16,r16,r16
  803f40:	ac2f883a 	add	r23,r21,r16
  803f44:	84000204 	addi	r16,r16,8
  803f48:	9c21883a 	add	r16,r19,r16
  803f4c:	b0002716 	blt	r22,zero,803fec <__call_exitprocs+0x118>
  803f50:	90000726 	beq	r18,zero,803f70 <__call_exitprocs+0x9c>
  803f54:	a800041e 	bne	r21,zero,803f68 <__call_exitprocs+0x94>
  803f58:	b5bfffc4 	addi	r22,r22,-1
  803f5c:	bdffff04 	addi	r23,r23,-4
  803f60:	843fff04 	addi	r16,r16,-4
  803f64:	003ff906 	br	803f4c <__alt_data_end+0xff803f4c>
  803f68:	b9002017 	ldw	r4,128(r23)
  803f6c:	913ffa1e 	bne	r18,r4,803f58 <__alt_data_end+0xff803f58>
  803f70:	99000117 	ldw	r4,4(r19)
  803f74:	82000017 	ldw	r8,0(r16)
  803f78:	213fffc4 	addi	r4,r4,-1
  803f7c:	b100021e 	bne	r22,r4,803f88 <__call_exitprocs+0xb4>
  803f80:	9d800115 	stw	r22,4(r19)
  803f84:	00000106 	br	803f8c <__call_exitprocs+0xb8>
  803f88:	80000015 	stw	zero,0(r16)
  803f8c:	403ff226 	beq	r8,zero,803f58 <__alt_data_end+0xff803f58>
  803f90:	9f000117 	ldw	fp,4(r19)
  803f94:	a8000526 	beq	r21,zero,803fac <__call_exitprocs+0xd8>
  803f98:	00800044 	movi	r2,1
  803f9c:	1592983a 	sll	r9,r2,r22
  803fa0:	a9404017 	ldw	r5,256(r21)
  803fa4:	494a703a 	and	r5,r9,r5
  803fa8:	2800021e 	bne	r5,zero,803fb4 <__call_exitprocs+0xe0>
  803fac:	403ee83a 	callr	r8
  803fb0:	00000906 	br	803fd8 <__call_exitprocs+0x104>
  803fb4:	a9004117 	ldw	r4,260(r21)
  803fb8:	4908703a 	and	r4,r9,r4
  803fbc:	2000041e 	bne	r4,zero,803fd0 <__call_exitprocs+0xfc>
  803fc0:	b9400017 	ldw	r5,0(r23)
  803fc4:	d9000017 	ldw	r4,0(sp)
  803fc8:	403ee83a 	callr	r8
  803fcc:	00000206 	br	803fd8 <__call_exitprocs+0x104>
  803fd0:	b9000017 	ldw	r4,0(r23)
  803fd4:	403ee83a 	callr	r8
  803fd8:	99000117 	ldw	r4,4(r19)
  803fdc:	e13fcc1e 	bne	fp,r4,803f10 <__alt_data_end+0xff803f10>
  803fe0:	89000017 	ldw	r4,0(r17)
  803fe4:	993fdc26 	beq	r19,r4,803f58 <__alt_data_end+0xff803f58>
  803fe8:	003fc906 	br	803f10 <__alt_data_end+0xff803f10>
  803fec:	00800034 	movhi	r2,0
  803ff0:	10800004 	addi	r2,r2,0
  803ff4:	10000f26 	beq	r2,zero,804034 <__call_exitprocs+0x160>
  803ff8:	99400117 	ldw	r5,4(r19)
  803ffc:	99000017 	ldw	r4,0(r19)
  804000:	2800091e 	bne	r5,zero,804028 <__call_exitprocs+0x154>
  804004:	20000826 	beq	r4,zero,804028 <__call_exitprocs+0x154>
  804008:	89000015 	stw	r4,0(r17)
  80400c:	a8000226 	beq	r21,zero,804018 <__call_exitprocs+0x144>
  804010:	a809883a 	mov	r4,r21
  804014:	00000000 	call	0 <__reset-0x800000>
  804018:	9809883a 	mov	r4,r19
  80401c:	00000000 	call	0 <__reset-0x800000>
  804020:	8cc00017 	ldw	r19,0(r17)
  804024:	003fbd06 	br	803f1c <__alt_data_end+0xff803f1c>
  804028:	9823883a 	mov	r17,r19
  80402c:	2027883a 	mov	r19,r4
  804030:	003fba06 	br	803f1c <__alt_data_end+0xff803f1c>
  804034:	dfc00a17 	ldw	ra,40(sp)
  804038:	df000917 	ldw	fp,36(sp)
  80403c:	ddc00817 	ldw	r23,32(sp)
  804040:	dd800717 	ldw	r22,28(sp)
  804044:	dd400617 	ldw	r21,24(sp)
  804048:	dd000517 	ldw	r20,20(sp)
  80404c:	dcc00417 	ldw	r19,16(sp)
  804050:	dc800317 	ldw	r18,12(sp)
  804054:	dc400217 	ldw	r17,8(sp)
  804058:	dc000117 	ldw	r16,4(sp)
  80405c:	dec00b04 	addi	sp,sp,44
  804060:	f800283a 	ret

00804064 <_exit>:
 *
 * ALT_EXIT is mapped onto the _exit() system call in alt_syscall.h
 */

void ALT_EXIT (int exit_code)
{
  804064:	defffd04 	addi	sp,sp,-12
  804068:	df000215 	stw	fp,8(sp)
  80406c:	df000204 	addi	fp,sp,8
  804070:	e13fff15 	stw	r4,-4(fp)
  ALT_LOG_PRINT_BOOT("[alt_exit.c] Entering _exit() function.\r\n");
  ALT_LOG_PRINT_BOOT("[alt_exit.c] Exit code from main was %d.\r\n",exit_code);
  /* Stop all other threads */

  ALT_LOG_PRINT_BOOT("[alt_exit.c] Calling ALT_OS_STOP().\r\n");
  ALT_OS_STOP();
  804074:	0001883a 	nop
  804078:	e0bfff17 	ldw	r2,-4(fp)
  80407c:	e0bffe15 	stw	r2,-8(fp)
/*
 * Routine called on exit.
 */
static ALT_INLINE ALT_ALWAYS_INLINE void alt_sim_halt(int exit_code)
{
  register int r2 asm ("r2") = exit_code;
  804080:	e0bffe17 	ldw	r2,-8(fp)
  __asm__ volatile ("\n0:\n\taddi %0,%0, -1\n\tbgt %0,zero,0b" : : "r" (ALT_CPU_FREQ/100) ); /* Delay for >30ms */

  __asm__ volatile ("break 2" : : "r"(r2), "r"(r3) ALT_GMON_DATA );

#else /* !DEBUG_STUB */
  if (r2) {
  804084:	10000226 	beq	r2,zero,804090 <_exit+0x2c>
    ALT_SIM_FAIL();
  804088:	002af070 	cmpltui	zero,zero,43969
  80408c:	00000106 	br	804094 <_exit+0x30>
  } else {
    ALT_SIM_PASS();
  804090:	002af0b0 	cmpltui	zero,zero,43970
  ALT_SIM_HALT(exit_code);

  /* spin forever, since there's no where to go back to */

  ALT_LOG_PRINT_BOOT("[alt_exit.c] Spinning forever.\r\n");
  while (1);
  804094:	003fff06 	br	804094 <__alt_data_end+0xff804094>
